---
triple:          'x86_64-apple-darwin'
binary-path:     '/Applications/Operating_System_Algorithms_and_Implementation/week7/output/LRU'
relocations:
  - { offsetInCU: 0x3CBB, offset: 0x3CBB, size: 0x8, addend: 0x0, symName: __ZNSt3__124__put_character_sequenceB8ue170006IcNS_11char_traitsIcEEEERNS_13basic_ostreamIT_T0_EES7_PKS4_m, symObjAddr: 0x1330, symBinAddr: 0x100001F10, symSize: 0x1F0 }
  - { offsetInCU: 0x98F3, offset: 0x98F3, size: 0x8, addend: 0x0, symName: __ZNSt3__1neB8ue170006ERKNS_15__list_iteratorIiPvEES4_, symObjAddr: 0xF0, symBinAddr: 0x100000CD0, symSize: 0x30 }
  - { offsetInCU: 0x9930, offset: 0x9930, size: 0x8, addend: 0x0, symName: __ZNSt3__1lsB8ue170006INS_11char_traitsIcEEEERNS_13basic_ostreamIcT_EES6_PKc, symObjAddr: 0x150, symBinAddr: 0x100000D30, symSize: 0x40 }
  - { offsetInCU: 0x9976, offset: 0x9976, size: 0x8, addend: 0x0, symName: __ZNSt3__1neB8ue170006ERKNS_14__map_iteratorINS_15__tree_iteratorINS_12__value_typeIiNS_15__list_iteratorIiPvEEEEPNS_11__tree_nodeIS6_S4_EElEEEESD_, symObjAddr: 0x730, symBinAddr: 0x100001310, symSize: 0x30 }
  - { offsetInCU: 0x99B3, offset: 0x99B3, size: 0x8, addend: 0x0, symName: __ZNSt3__14endlB8ue170006IcNS_11char_traitsIcEEEERNS_13basic_ostreamIT_T0_EES7_, symObjAddr: 0xBE0, symBinAddr: 0x1000017C0, symSize: 0x50 }
  - { offsetInCU: 0x9A26, offset: 0x9A26, size: 0x8, addend: 0x0, symName: __ZNSt3__130__libcpp_is_constant_evaluatedB8ue170006Ev, symObjAddr: 0x11D0, symBinAddr: 0x100001DB0, symSize: 0x10 }
  - { offsetInCU: 0x9A43, offset: 0x9A43, size: 0x8, addend: 0x0, symName: __ZNSt3__119__libcpp_deallocateB8ue170006EPvmm, symObjAddr: 0x11E0, symBinAddr: 0x100001DC0, symSize: 0x30 }
  - { offsetInCU: 0x9A8B, offset: 0x9A8B, size: 0x8, addend: 0x0, symName: __ZNSt3__127__do_deallocate_handle_sizeB8ue170006IJEEEvPvmDpT_, symObjAddr: 0x1210, symBinAddr: 0x100001DF0, symSize: 0x20 }
  - { offsetInCU: 0x9AC9, offset: 0x9AC9, size: 0x8, addend: 0x0, symName: __ZNSt3__124__libcpp_operator_deleteB8ue170006IJPvEEEvDpT_, symObjAddr: 0x1230, symBinAddr: 0x100001E10, symSize: 0x20 }
  - { offsetInCU: 0x9AFE, offset: 0x9AFE, size: 0x8, addend: 0x0, symName: __ZNSt3__1eqB8ue170006ERKNS_15__list_iteratorIiPvEES4_, symObjAddr: 0x1300, symBinAddr: 0x100001EE0, symSize: 0x30 }
  - { offsetInCU: 0x9B3B, offset: 0x9B3B, size: 0x8, addend: 0x0, symName: __ZNSt3__116__pad_and_outputB8ue170006IcNS_11char_traitsIcEEEENS_19ostreambuf_iteratorIT_T0_EES6_PKS4_S8_S8_RNS_8ios_baseES4_, symObjAddr: 0x1580, symBinAddr: 0x100002160, symSize: 0x220 }
  - { offsetInCU: 0x9C0B, offset: 0x9C0B, size: 0x8, addend: 0x0, symName: __ZNSt3__112__to_addressB8ue170006IKcEEPT_S3_, symObjAddr: 0x1AA0, symBinAddr: 0x100002680, symSize: 0x10 }
  - { offsetInCU: 0x9C73, offset: 0x9C73, size: 0x8, addend: 0x0, symName: __ZNSt3__19use_facetB8ue170006INS_5ctypeIcEEEERKT_RKNS_6localeE, symObjAddr: 0x1D50, symBinAddr: 0x100002930, symSize: 0x30 }
  - { offsetInCU: 0xA140, offset: 0xA140, size: 0x8, addend: 0x0, symName: __ZNSt3__118__constexpr_strlenB8ue170006EPKc, symObjAddr: 0x1DE0, symBinAddr: 0x1000029C0, symSize: 0x20 }
  - { offsetInCU: 0xA19F, offset: 0xA19F, size: 0x8, addend: 0x0, symName: __ZNSt3__1neB8ue170006ERKNS_15__tree_iteratorINS_12__value_typeIiNS_15__list_iteratorIiPvEEEEPNS_11__tree_nodeIS5_S3_EElEESB_, symObjAddr: 0x2730, symBinAddr: 0x100003310, symSize: 0x30 }
  - { offsetInCU: 0xA1DC, offset: 0xA1DC, size: 0x8, addend: 0x0, symName: __ZNSt3__1eqB8ue170006ERKNS_15__tree_iteratorINS_12__value_typeIiNS_15__list_iteratorIiPvEEEEPNS_11__tree_nodeIS5_S3_EElEESB_, symObjAddr: 0x28F0, symBinAddr: 0x1000034D0, symSize: 0x30 }
  - { offsetInCU: 0xA237, offset: 0xA237, size: 0x8, addend: 0x0, symName: __ZNSt3__117__libcpp_allocateB8ue170006Emm, symObjAddr: 0x2FC0, symBinAddr: 0x100003BA0, symSize: 0x20 }
  - { offsetInCU: 0xA274, offset: 0xA274, size: 0x8, addend: 0x0, symName: __ZNSt3__121__libcpp_operator_newB8ue170006IJmEEEPvDpT_, symObjAddr: 0x3000, symBinAddr: 0x100003BE0, symSize: 0x20 }
  - { offsetInCU: 0xA2AD, offset: 0xA2AD, size: 0x8, addend: 0x0, symName: __ZNSt3__127__tree_balance_after_insertB8ue170006IPNS_16__tree_node_baseIPvEEEEvT_S5_, symObjAddr: 0x3240, symBinAddr: 0x100003E20, symSize: 0x340 }
  - { offsetInCU: 0xA321, offset: 0xA321, size: 0x8, addend: 0x0, symName: __ZNSt3__120__tree_is_left_childB8ue170006IPNS_16__tree_node_baseIPvEEEEbT_, symObjAddr: 0x35C0, symBinAddr: 0x1000041A0, symSize: 0x30 }
  - { offsetInCU: 0xA356, offset: 0xA356, size: 0x8, addend: 0x0, symName: __ZNSt3__118__tree_left_rotateB8ue170006IPNS_16__tree_node_baseIPvEEEEvT_, symObjAddr: 0x35F0, symBinAddr: 0x1000041D0, symSize: 0xE0 }
  - { offsetInCU: 0xA398, offset: 0xA398, size: 0x8, addend: 0x0, symName: __ZNSt3__119__tree_right_rotateB8ue170006IPNS_16__tree_node_baseIPvEEEEvT_, symObjAddr: 0x36D0, symBinAddr: 0x1000042B0, symSize: 0xC0 }
  - { offsetInCU: 0xA3F8, offset: 0xA3F8, size: 0x8, addend: 0x0, symName: __ZNSt3__1neB8ue170006ERKNS_21__list_const_iteratorIiPvEES4_, symObjAddr: 0x4100, symBinAddr: 0x100004CE0, symSize: 0x30 }
  - { offsetInCU: 0xA435, offset: 0xA435, size: 0x8, addend: 0x0, symName: __ZNSt3__1eqB8ue170006ERKNS_21__list_const_iteratorIiPvEES4_, symObjAddr: 0x43E0, symBinAddr: 0x100004FC0, symSize: 0x30 }
  - { offsetInCU: 0xA472, offset: 0xA472, size: 0x8, addend: 0x0, symName: __ZNSt3__113__tree_removeB8ue170006IPNS_16__tree_node_baseIPvEEEEvT_S5_, symObjAddr: 0x4750, symBinAddr: 0x100005330, symSize: 0x5E0 }
  - { offsetInCU: 0xA4F0, offset: 0xA4F0, size: 0x8, addend: 0x0, symName: __ZNSt3__116__tree_next_iterB8ue170006IPNS_15__tree_end_nodeIPNS_16__tree_node_baseIPvEEEES5_EET_T0_, symObjAddr: 0x4D50, symBinAddr: 0x100005930, symSize: 0x80 }
  - { offsetInCU: 0xA52E, offset: 0xA52E, size: 0x8, addend: 0x0, symName: __ZNSt3__110__tree_minB8ue170006IPNS_16__tree_node_baseIPvEEEET_S5_, symObjAddr: 0x4DD0, symBinAddr: 0x1000059B0, symSize: 0x30 }
  - { offsetInCU: 0xA563, offset: 0xA563, size: 0x8, addend: 0x0, symName: __ZNSt3__111__tree_nextB8ue170006IPNS_16__tree_node_baseIPvEEEET_S5_, symObjAddr: 0x4E00, symBinAddr: 0x1000059E0, symSize: 0x80 }
  - { offsetInCU: 0xA598, offset: 0xA598, size: 0x8, addend: 0x0, symName: __ZNSt3__122__make_exception_guardB8ue170006INS_6vectorIiNS_9allocatorIiEEE16__destroy_vectorEEENS_28__exception_guard_exceptionsIT_EES7_, symObjAddr: 0x4FB0, symBinAddr: 0x100005B90, symSize: 0x40 }
  - { offsetInCU: 0xA5CD, offset: 0xA5CD, size: 0x8, addend: 0x0, symName: __ZNSt3__119__allocate_at_leastB8ue170006INS_9allocatorIiEEEENS_19__allocation_resultINS_16allocator_traitsIT_E7pointerEEERS5_m, symObjAddr: 0x5380, symBinAddr: 0x100005F60, symSize: 0x40 }
  - { offsetInCU: 0xA610, offset: 0xA610, size: 0x8, addend: 0x0, symName: __ZNSt3__13minB8ue170006ImEERKT_S3_S3_, symObjAddr: 0x54B0, symBinAddr: 0x100006090, symSize: 0x30 }
  - { offsetInCU: 0xA854, offset: 0xA854, size: 0x8, addend: 0x0, symName: __ZNSt3__13minB8ue170006ImNS_6__lessIvvEEEERKT_S5_S5_T0_, symObjAddr: 0x5530, symBinAddr: 0x100006110, symSize: 0x50 }
  - { offsetInCU: 0xA8F3, offset: 0xA8F3, size: 0x8, addend: 0x0, symName: __ZNSt3__120__throw_length_errorB8ue170006EPKc, symObjAddr: 0x5610, symBinAddr: 0x1000061F0, symSize: 0x70 }
  - { offsetInCU: 0xA91D, offset: 0xA91D, size: 0x8, addend: 0x0, symName: __ZNSt3__112__to_addressB8ue170006IiEEPT_S2_, symObjAddr: 0x5840, symBinAddr: 0x100006420, symSize: 0x10 }
  - { offsetInCU: 0xAAF8, offset: 0xAAF8, size: 0x8, addend: 0x0, symName: __ZSt28__throw_bad_array_new_lengthB8ue170006v, symObjAddr: 0x2F80, symBinAddr: 0x100003B60, symSize: 0x40 }
  - { offsetInCU: 0xD7F9, offset: 0xD7F9, size: 0x8, addend: 0x0, symName: __Z10printTableNSt3__14listIiNS_9allocatorIiEEEE, symObjAddr: 0x0, symBinAddr: 0x100000BE0, symSize: 0x90 }
  - { offsetInCU: 0xD875, offset: 0xD875, size: 0x8, addend: 0x0, symName: __ZNSt3__14listIiNS_9allocatorIiEEE5beginB8ue170006Ev, symObjAddr: 0x90, symBinAddr: 0x100000C70, symSize: 0x30 }
  - { offsetInCU: 0xD89B, offset: 0xD89B, size: 0x8, addend: 0x0, symName: __ZNSt3__14listIiNS_9allocatorIiEEE3endB8ue170006Ev, symObjAddr: 0xC0, symBinAddr: 0x100000CA0, symSize: 0x30 }
  - { offsetInCU: 0xD8C1, offset: 0xD8C1, size: 0x8, addend: 0x0, symName: __ZNKSt3__115__list_iteratorIiPvEdeB8ue170006Ev, symObjAddr: 0x120, symBinAddr: 0x100000D00, symSize: 0x30 }
  - { offsetInCU: 0xD8E7, offset: 0xD8E7, size: 0x8, addend: 0x0, symName: __ZNSt3__115__list_iteratorIiPvEppB8ue170006Ev, symObjAddr: 0x190, symBinAddr: 0x100000D70, symSize: 0x20 }
  - { offsetInCU: 0xD90D, offset: 0xD90D, size: 0x8, addend: 0x0, symName: __Z17lruImplementationRNSt3__16vectorIiNS_9allocatorIiEEEEii, symObjAddr: 0x1B0, symBinAddr: 0x100000D90, symSize: 0x520 }
  - { offsetInCU: 0xD9DA, offset: 0xD9DA, size: 0x8, addend: 0x0, symName: __ZNSt3__14listIiNS_9allocatorIiEEEC1B8ue170006Ev, symObjAddr: 0x6D0, symBinAddr: 0x1000012B0, symSize: 0x20 }
  - { offsetInCU: 0xDA04, offset: 0xDA04, size: 0x8, addend: 0x0, symName: __ZNSt3__13mapIiNS_15__list_iteratorIiPvEENS_4lessIiEENS_9allocatorINS_4pairIKiS3_EEEEEC1B8ue170006Ev, symObjAddr: 0x6F0, symBinAddr: 0x1000012D0, symSize: 0x20 }
  - { offsetInCU: 0xDA2E, offset: 0xDA2E, size: 0x8, addend: 0x0, symName: __ZNSt3__16vectorIiNS_9allocatorIiEEEixB8ue170006Em, symObjAddr: 0x710, symBinAddr: 0x1000012F0, symSize: 0x20 }
  - { offsetInCU: 0xDA65, offset: 0xDA65, size: 0x8, addend: 0x0, symName: __ZNSt3__13mapIiNS_15__list_iteratorIiPvEENS_4lessIiEENS_9allocatorINS_4pairIKiS3_EEEEE4findB8ue170006ERS8_, symObjAddr: 0x760, symBinAddr: 0x100001340, symSize: 0x40 }
  - { offsetInCU: 0xDA9A, offset: 0xDA9A, size: 0x8, addend: 0x0, symName: __ZNSt3__13mapIiNS_15__list_iteratorIiPvEENS_4lessIiEENS_9allocatorINS_4pairIKiS3_EEEEE3endB8ue170006Ev, symObjAddr: 0x7A0, symBinAddr: 0x100001380, symSize: 0x30 }
  - { offsetInCU: 0xDAC0, offset: 0xDAC0, size: 0x8, addend: 0x0, symName: __ZNSt3__14listIiNS_9allocatorIiEEE5eraseENS_21__list_const_iteratorIiPvEE, symObjAddr: 0x7D0, symBinAddr: 0x1000013B0, symSize: 0xA0 }
  - { offsetInCU: 0xDB33, offset: 0xDB33, size: 0x8, addend: 0x0, symName: __ZNSt3__13mapIiNS_15__list_iteratorIiPvEENS_4lessIiEENS_9allocatorINS_4pairIKiS3_EEEEEixERS8_, symObjAddr: 0x870, symBinAddr: 0x100001450, symSize: 0xB0 }
  - { offsetInCU: 0xDBB4, offset: 0xDBB4, size: 0x8, addend: 0x0, symName: __ZNSt3__121__list_const_iteratorIiPvEC1B8ue170006ERKNS_15__list_iteratorIiS1_EE, symObjAddr: 0x920, symBinAddr: 0x100001500, symSize: 0x30 }
  - { offsetInCU: 0xDBED, offset: 0xDBED, size: 0x8, addend: 0x0, symName: __ZNSt3__14listIiNS_9allocatorIiEEE10push_frontERKi, symObjAddr: 0x950, symBinAddr: 0x100001530, symSize: 0x100 }
  - { offsetInCU: 0xDC52, offset: 0xDC52, size: 0x8, addend: 0x0, symName: __ZNSt3__14listIiNS_9allocatorIiEEEC1ERKS3_, symObjAddr: 0xA50, symBinAddr: 0x100001630, symSize: 0x30 }
  - { offsetInCU: 0xDC8D, offset: 0xDC8D, size: 0x8, addend: 0x0, symName: __ZNSt3__14listIiNS_9allocatorIiEEED1Ev, symObjAddr: 0xA80, symBinAddr: 0x100001660, symSize: 0x20 }
  - { offsetInCU: 0xDCBA, offset: 0xDCBA, size: 0x8, addend: 0x0, symName: __ZNKSt3__14listIiNS_9allocatorIiEEE4sizeB8ue170006Ev, symObjAddr: 0xAB0, symBinAddr: 0x100001690, symSize: 0x20 }
  - { offsetInCU: 0xDCE0, offset: 0xDCE0, size: 0x8, addend: 0x0, symName: __ZNSt3__14listIiNS_9allocatorIiEEE4backB8ue170006Ev, symObjAddr: 0xAD0, symBinAddr: 0x1000016B0, symSize: 0x30 }
  - { offsetInCU: 0xDD06, offset: 0xDD06, size: 0x8, addend: 0x0, symName: __ZNSt3__14listIiNS_9allocatorIiEEE8pop_backEv, symObjAddr: 0xB00, symBinAddr: 0x1000016E0, symSize: 0x90 }
  - { offsetInCU: 0xDD5B, offset: 0xDD5B, size: 0x8, addend: 0x0, symName: __ZNSt3__13mapIiNS_15__list_iteratorIiPvEENS_4lessIiEENS_9allocatorINS_4pairIKiS3_EEEEE5eraseB8ue170006ERS8_, symObjAddr: 0xB90, symBinAddr: 0x100001770, symSize: 0x30 }
  - { offsetInCU: 0xDD90, offset: 0xDD90, size: 0x8, addend: 0x0, symName: __ZNSt3__113basic_ostreamIcNS_11char_traitsIcEEElsB8ue170006EPFRS3_S4_E, symObjAddr: 0xBC0, symBinAddr: 0x1000017A0, symSize: 0x20 }
  - { offsetInCU: 0xDDC4, offset: 0xDDC4, size: 0x8, addend: 0x0, symName: __ZNSt3__13mapIiNS_15__list_iteratorIiPvEENS_4lessIiEENS_9allocatorINS_4pairIKiS3_EEEEED1B8ue170006Ev, symObjAddr: 0xC30, symBinAddr: 0x100001810, symSize: 0x20 }
  - { offsetInCU: 0xDDEE, offset: 0xDDEE, size: 0x8, addend: 0x0, symName: _main, symObjAddr: 0xC50, symBinAddr: 0x100001830, symSize: 0x130 }
  - { offsetInCU: 0xDE53, offset: 0xDE53, size: 0x8, addend: 0x0, symName: __ZNSt3__16vectorIiNS_9allocatorIiEEEC1Em, symObjAddr: 0xD80, symBinAddr: 0x100001960, symSize: 0x30 }
  - { offsetInCU: 0xDE8E, offset: 0xDE8E, size: 0x8, addend: 0x0, symName: __ZNSt3__16vectorIiNS_9allocatorIiEEED1B8ue170006Ev, symObjAddr: 0xDB0, symBinAddr: 0x100001990, symSize: 0x20 }
  - { offsetInCU: 0xDEB8, offset: 0xDEB8, size: 0x8, addend: 0x0, symName: __ZNSt3__14listIiNS_9allocatorIiEEED2Ev, symObjAddr: 0xDD0, symBinAddr: 0x1000019B0, symSize: 0x20 }
  - { offsetInCU: 0xDEE5, offset: 0xDEE5, size: 0x8, addend: 0x0, symName: __ZNSt3__110__list_impIiNS_9allocatorIiEEED2Ev, symObjAddr: 0xDF0, symBinAddr: 0x1000019D0, symSize: 0x20 }
  - { offsetInCU: 0xDF11, offset: 0xDF11, size: 0x8, addend: 0x0, symName: __ZNSt3__110__list_impIiNS_9allocatorIiEEE5clearEv, symObjAddr: 0xE10, symBinAddr: 0x1000019F0, symSize: 0xF0 }
  - { offsetInCU: 0xDF81, offset: 0xDF81, size: 0x8, addend: 0x0, symName: __ZNKSt3__110__list_impIiNS_9allocatorIiEEE5emptyB8ue170006Ev, symObjAddr: 0xF00, symBinAddr: 0x100001AE0, symSize: 0x30 }
  - { offsetInCU: 0xDFA7, offset: 0xDFA7, size: 0x8, addend: 0x0, symName: __ZNSt3__110__list_impIiNS_9allocatorIiEEE12__node_allocB8ue170006Ev, symObjAddr: 0xF30, symBinAddr: 0x100001B10, symSize: 0x20 }
  - { offsetInCU: 0xDFCD, offset: 0xDFCD, size: 0x8, addend: 0x0, symName: __ZNKSt3__110__list_impIiNS_9allocatorIiEEE13__end_as_linkB8ue170006Ev, symObjAddr: 0xF50, symBinAddr: 0x100001B30, symSize: 0x50 }
  - { offsetInCU: 0xDFF3, offset: 0xDFF3, size: 0x8, addend: 0x0, symName: __ZNSt3__110__list_impIiNS_9allocatorIiEEE14__unlink_nodesEPNS_16__list_node_baseIiPvEES7_, symObjAddr: 0xFA0, symBinAddr: 0x100001B80, symSize: 0x40 }
  - { offsetInCU: 0xE028, offset: 0xE028, size: 0x8, addend: 0x0, symName: __ZNSt3__110__list_impIiNS_9allocatorIiEEE4__szB8ue170006Ev, symObjAddr: 0xFE0, symBinAddr: 0x100001BC0, symSize: 0x20 }
  - { offsetInCU: 0xE04E, offset: 0xE04E, size: 0x8, addend: 0x0, symName: __ZNSt3__116__list_node_baseIiPvE9__as_nodeB8ue170006Ev, symObjAddr: 0x1000, symBinAddr: 0x100001BE0, symSize: 0x20 }
  - { offsetInCU: 0xE074, offset: 0xE074, size: 0x8, addend: 0x0, symName: __ZNSt3__116allocator_traitsINS_9allocatorINS_11__list_nodeIiPvEEEEE7destroyB8ue170006IivvEEvRS5_PT_, symObjAddr: 0x1020, symBinAddr: 0x100001C00, symSize: 0x10 }
  - { offsetInCU: 0xE0AF, offset: 0xE0AF, size: 0x8, addend: 0x0, symName: __ZNSt3__116allocator_traitsINS_9allocatorINS_11__list_nodeIiPvEEEEE10deallocateB8ue170006ERS5_PS4_m, symObjAddr: 0x1030, symBinAddr: 0x100001C10, symSize: 0x30 }
  - { offsetInCU: 0xE0F1, offset: 0xE0F1, size: 0x8, addend: 0x0, symName: __ZNKSt3__110__list_impIiNS_9allocatorIiEEE4__szB8ue170006Ev, symObjAddr: 0x1060, symBinAddr: 0x100001C40, symSize: 0x20 }
  - { offsetInCU: 0xE117, offset: 0xE117, size: 0x8, addend: 0x0, symName: __ZNKSt3__117__compressed_pairImNS_9allocatorINS_11__list_nodeIiPvEEEEE5firstB8ue170006Ev, symObjAddr: 0x1080, symBinAddr: 0x100001C60, symSize: 0x20 }
  - { offsetInCU: 0xE13D, offset: 0xE13D, size: 0x8, addend: 0x0, symName: __ZNKSt3__122__compressed_pair_elemImLi0ELb0EE5__getB8ue170006Ev, symObjAddr: 0x10A0, symBinAddr: 0x100001C80, symSize: 0x10 }
  - { offsetInCU: 0xE163, offset: 0xE163, size: 0x8, addend: 0x0, symName: __ZNSt3__117__compressed_pairImNS_9allocatorINS_11__list_nodeIiPvEEEEE6secondB8ue170006Ev, symObjAddr: 0x10B0, symBinAddr: 0x100001C90, symSize: 0x20 }
  - { offsetInCU: 0xE189, offset: 0xE189, size: 0x8, addend: 0x0, symName: __ZNSt3__122__compressed_pair_elemINS_9allocatorINS_11__list_nodeIiPvEEEELi1ELb1EE5__getB8ue170006Ev, symObjAddr: 0x10D0, symBinAddr: 0x100001CB0, symSize: 0x10 }
  - { offsetInCU: 0xE1AF, offset: 0xE1AF, size: 0x8, addend: 0x0, symName: __ZNSt3__126__list_node_pointer_traitsIiPvE26__unsafe_link_pointer_castB8ue170006EPNS_16__list_node_baseIiS1_EE, symObjAddr: 0x10E0, symBinAddr: 0x100001CC0, symSize: 0x10 }
  - { offsetInCU: 0xE1D3, offset: 0xE1D3, size: 0x8, addend: 0x0, symName: __ZNSt3__116__list_node_baseIiPvE6__selfB8ue170006Ev, symObjAddr: 0x10F0, symBinAddr: 0x100001CD0, symSize: 0x20 }
  - { offsetInCU: 0xE1FE, offset: 0xE1FE, size: 0x8, addend: 0x0, symName: __ZNSt3__114pointer_traitsIPNS_16__list_node_baseIiPvEEE10pointer_toB8ue170006ERS3_, symObjAddr: 0x1110, symBinAddr: 0x100001CF0, symSize: 0x10 }
  - { offsetInCU: 0xE221, offset: 0xE221, size: 0x8, addend: 0x0, symName: __ZNSt3__117__compressed_pairImNS_9allocatorINS_11__list_nodeIiPvEEEEE5firstB8ue170006Ev, symObjAddr: 0x1120, symBinAddr: 0x100001D00, symSize: 0x20 }
  - { offsetInCU: 0xE247, offset: 0xE247, size: 0x8, addend: 0x0, symName: __ZNSt3__122__compressed_pair_elemImLi0ELb0EE5__getB8ue170006Ev, symObjAddr: 0x1140, symBinAddr: 0x100001D20, symSize: 0x10 }
  - { offsetInCU: 0xE26D, offset: 0xE26D, size: 0x8, addend: 0x0, symName: __ZNSt3__19allocatorINS_11__list_nodeIiPvEEE10deallocateB8ue170006EPS3_m, symObjAddr: 0x1150, symBinAddr: 0x100001D30, symSize: 0x80 }
  - { offsetInCU: 0xE2AF, offset: 0xE2AF, size: 0x8, addend: 0x0, symName: __ZNSt3__110__list_impIiNS_9allocatorIiEEE5beginB8ue170006Ev, symObjAddr: 0x1250, symBinAddr: 0x100001E30, symSize: 0x30 }
  - { offsetInCU: 0xE2D5, offset: 0xE2D5, size: 0x8, addend: 0x0, symName: __ZNSt3__115__list_iteratorIiPvEC1B8ue170006EPNS_16__list_node_baseIiS1_EE, symObjAddr: 0x1280, symBinAddr: 0x100001E60, symSize: 0x30 }
  - { offsetInCU: 0xE30E, offset: 0xE30E, size: 0x8, addend: 0x0, symName: __ZNSt3__115__list_iteratorIiPvEC2B8ue170006EPNS_16__list_node_baseIiS1_EE, symObjAddr: 0x12B0, symBinAddr: 0x100001E90, symSize: 0x20 }
  - { offsetInCU: 0xE347, offset: 0xE347, size: 0x8, addend: 0x0, symName: __ZNSt3__110__list_impIiNS_9allocatorIiEEE3endB8ue170006Ev, symObjAddr: 0x12D0, symBinAddr: 0x100001EB0, symSize: 0x30 }
  - { offsetInCU: 0xE36D, offset: 0xE36D, size: 0x8, addend: 0x0, symName: __ZNSt3__111char_traitsIcE6lengthB8ue170006EPKc, symObjAddr: 0x1520, symBinAddr: 0x100002100, symSize: 0x40 }
  - { offsetInCU: 0xE3AE, offset: 0xE3AE, size: 0x8, addend: 0x0, symName: __ZNKSt3__113basic_ostreamIcNS_11char_traitsIcEEE6sentrycvbB8ue170006Ev, symObjAddr: 0x1560, symBinAddr: 0x100002140, symSize: 0x20 }
  - { offsetInCU: 0xE3D4, offset: 0xE3D4, size: 0x8, addend: 0x0, symName: __ZNSt3__119ostreambuf_iteratorIcNS_11char_traitsIcEEEC1B8ue170006ERNS_13basic_ostreamIcS2_EE, symObjAddr: 0x17A0, symBinAddr: 0x100002380, symSize: 0x30 }
  - { offsetInCU: 0xE40C, offset: 0xE40C, size: 0x8, addend: 0x0, symName: __ZNKSt3__18ios_base5flagsB8ue170006Ev, symObjAddr: 0x17D0, symBinAddr: 0x1000023B0, symSize: 0x20 }
  - { offsetInCU: 0xE434, offset: 0xE434, size: 0x8, addend: 0x0, symName: __ZNKSt3__19basic_iosIcNS_11char_traitsIcEEE4fillB8ue170006Ev, symObjAddr: 0x17F0, symBinAddr: 0x1000023D0, symSize: 0x70 }
  - { offsetInCU: 0xE45C, offset: 0xE45C, size: 0x8, addend: 0x0, symName: __ZNKSt3__119ostreambuf_iteratorIcNS_11char_traitsIcEEE6failedB8ue170006Ev, symObjAddr: 0x1860, symBinAddr: 0x100002440, symSize: 0x20 }
  - { offsetInCU: 0xE482, offset: 0xE482, size: 0x8, addend: 0x0, symName: __ZNSt3__19basic_iosIcNS_11char_traitsIcEEE8setstateB8ue170006Ej, symObjAddr: 0x1880, symBinAddr: 0x100002460, symSize: 0x30 }
  - { offsetInCU: 0xE4B7, offset: 0xE4B7, size: 0x8, addend: 0x0, symName: __ZNKSt3__18ios_base5widthB8ue170006Ev, symObjAddr: 0x18B0, symBinAddr: 0x100002490, symSize: 0x20 }
  - { offsetInCU: 0xE4DF, offset: 0xE4DF, size: 0x8, addend: 0x0, symName: __ZNSt3__115basic_streambufIcNS_11char_traitsIcEEE5sputnB8ue170006EPKcl, symObjAddr: 0x18D0, symBinAddr: 0x1000024B0, symSize: 0x30 }
  - { offsetInCU: 0xE521, offset: 0xE521, size: 0x8, addend: 0x0, symName: __ZNSt3__112basic_stringIcNS_11char_traitsIcEENS_9allocatorIcEEEC1B8ue170006Emc, symObjAddr: 0x1900, symBinAddr: 0x1000024E0, symSize: 0x30 }
  - { offsetInCU: 0xE569, offset: 0xE569, size: 0x8, addend: 0x0, symName: __ZNKSt3__112basic_stringIcNS_11char_traitsIcEENS_9allocatorIcEEE4dataB8ue170006Ev, symObjAddr: 0x1930, symBinAddr: 0x100002510, symSize: 0x30 }
  - { offsetInCU: 0xE58F, offset: 0xE58F, size: 0x8, addend: 0x0, symName: __ZNSt3__18ios_base5widthB8ue170006El, symObjAddr: 0x1960, symBinAddr: 0x100002540, symSize: 0x30 }
  - { offsetInCU: 0xE5D5, offset: 0xE5D5, size: 0x8, addend: 0x0, symName: __ZNSt3__112basic_stringIcNS_11char_traitsIcEENS_9allocatorIcEEEC2B8ue170006Emc, symObjAddr: 0x1990, symBinAddr: 0x100002570, symSize: 0x50 }
  - { offsetInCU: 0xE622, offset: 0xE622, size: 0x8, addend: 0x0, symName: __ZNSt3__117__compressed_pairINS_12basic_stringIcNS_11char_traitsIcEENS_9allocatorIcEEE5__repES5_EC1B8ue170006INS_18__default_init_tagESA_EEOT_OT0_, symObjAddr: 0x19E0, symBinAddr: 0x1000025C0, symSize: 0x30 }
  - { offsetInCU: 0xE67A, offset: 0xE67A, size: 0x8, addend: 0x0, symName: __ZNSt3__117__compressed_pairINS_12basic_stringIcNS_11char_traitsIcEENS_9allocatorIcEEE5__repES5_EC2B8ue170006INS_18__default_init_tagESA_EEOT_OT0_, symObjAddr: 0x1A10, symBinAddr: 0x1000025F0, symSize: 0x30 }
  - { offsetInCU: 0xE6D2, offset: 0xE6D2, size: 0x8, addend: 0x0, symName: __ZNSt3__122__compressed_pair_elemINS_12basic_stringIcNS_11char_traitsIcEENS_9allocatorIcEEE5__repELi0ELb0EEC2B8ue170006ENS_18__default_init_tagE, symObjAddr: 0x1A40, symBinAddr: 0x100002620, symSize: 0x10 }
  - { offsetInCU: 0xE707, offset: 0xE707, size: 0x8, addend: 0x0, symName: __ZNSt3__122__compressed_pair_elemINS_9allocatorIcEELi1ELb1EEC2B8ue170006ENS_18__default_init_tagE, symObjAddr: 0x1A50, symBinAddr: 0x100002630, symSize: 0x20 }
  - { offsetInCU: 0xE73C, offset: 0xE73C, size: 0x8, addend: 0x0, symName: __ZNSt3__19allocatorIcEC2B8ue170006Ev, symObjAddr: 0x1A70, symBinAddr: 0x100002650, symSize: 0x20 }
  - { offsetInCU: 0xE766, offset: 0xE766, size: 0x8, addend: 0x0, symName: __ZNSt3__116__non_trivial_ifILb1ENS_9allocatorIcEEEC2B8ue170006Ev, symObjAddr: 0x1A90, symBinAddr: 0x100002670, symSize: 0x10 }
  - { offsetInCU: 0xE790, offset: 0xE790, size: 0x8, addend: 0x0, symName: __ZNKSt3__112basic_stringIcNS_11char_traitsIcEENS_9allocatorIcEEE13__get_pointerB8ue170006Ev, symObjAddr: 0x1AB0, symBinAddr: 0x100002690, symSize: 0x50 }
  - { offsetInCU: 0xE7B6, offset: 0xE7B6, size: 0x8, addend: 0x0, symName: __ZNKSt3__112basic_stringIcNS_11char_traitsIcEENS_9allocatorIcEEE9__is_longB8ue170006Ev, symObjAddr: 0x1B00, symBinAddr: 0x1000026E0, symSize: 0x60 }
  - { offsetInCU: 0xE7DC, offset: 0xE7DC, size: 0x8, addend: 0x0, symName: __ZNKSt3__112basic_stringIcNS_11char_traitsIcEENS_9allocatorIcEEE18__get_long_pointerB8ue170006Ev, symObjAddr: 0x1B60, symBinAddr: 0x100002740, symSize: 0x20 }
  - { offsetInCU: 0xE802, offset: 0xE802, size: 0x8, addend: 0x0, symName: __ZNKSt3__112basic_stringIcNS_11char_traitsIcEENS_9allocatorIcEEE19__get_short_pointerB8ue170006Ev, symObjAddr: 0x1B80, symBinAddr: 0x100002760, symSize: 0x30 }
  - { offsetInCU: 0xE828, offset: 0xE828, size: 0x8, addend: 0x0, symName: __ZNKSt3__117__compressed_pairINS_12basic_stringIcNS_11char_traitsIcEENS_9allocatorIcEEE5__repES5_E5firstB8ue170006Ev, symObjAddr: 0x1BB0, symBinAddr: 0x100002790, symSize: 0x20 }
  - { offsetInCU: 0xE84E, offset: 0xE84E, size: 0x8, addend: 0x0, symName: __ZNKSt3__122__compressed_pair_elemINS_12basic_stringIcNS_11char_traitsIcEENS_9allocatorIcEEE5__repELi0ELb0EE5__getB8ue170006Ev, symObjAddr: 0x1BD0, symBinAddr: 0x1000027B0, symSize: 0x10 }
  - { offsetInCU: 0xE874, offset: 0xE874, size: 0x8, addend: 0x0, symName: __ZNSt3__114pointer_traitsIPKcE10pointer_toB8ue170006ERS1_, symObjAddr: 0x1BE0, symBinAddr: 0x1000027C0, symSize: 0x10 }
  - { offsetInCU: 0xE897, offset: 0xE897, size: 0x8, addend: 0x0, symName: __ZNSt3__119ostreambuf_iteratorIcNS_11char_traitsIcEEEC2B8ue170006ERNS_13basic_ostreamIcS2_EE, symObjAddr: 0x1BF0, symBinAddr: 0x1000027D0, symSize: 0x60 }
  - { offsetInCU: 0xE8CF, offset: 0xE8CF, size: 0x8, addend: 0x0, symName: __ZNKSt3__19basic_iosIcNS_11char_traitsIcEEE5rdbufB8ue170006Ev, symObjAddr: 0x1C50, symBinAddr: 0x100002830, symSize: 0x20 }
  - { offsetInCU: 0xE8F7, offset: 0xE8F7, size: 0x8, addend: 0x0, symName: __ZNKSt3__18ios_base5rdbufB8ue170006Ev, symObjAddr: 0x1C70, symBinAddr: 0x100002850, symSize: 0x20 }
  - { offsetInCU: 0xE91D, offset: 0xE91D, size: 0x8, addend: 0x0, symName: __ZNSt3__111char_traitsIcE11eq_int_typeB8ue170006Eii, symObjAddr: 0x1C90, symBinAddr: 0x100002870, symSize: 0x20 }
  - { offsetInCU: 0xE950, offset: 0xE950, size: 0x8, addend: 0x0, symName: __ZNSt3__111char_traitsIcE3eofB8ue170006Ev, symObjAddr: 0x1CB0, symBinAddr: 0x100002890, symSize: 0x10 }
  - { offsetInCU: 0xE964, offset: 0xE964, size: 0x8, addend: 0x0, symName: __ZNKSt3__19basic_iosIcNS_11char_traitsIcEEE5widenB8ue170006Ec, symObjAddr: 0x1CC0, symBinAddr: 0x1000028A0, symSize: 0x90 }
  - { offsetInCU: 0xE9D2, offset: 0xE9D2, size: 0x8, addend: 0x0, symName: __ZNKSt3__15ctypeIcE5widenB8ue170006Ec, symObjAddr: 0x1D80, symBinAddr: 0x100002960, symSize: 0x30 }
  - { offsetInCU: 0xEA07, offset: 0xEA07, size: 0x8, addend: 0x0, symName: __ZNSt3__18ios_base8setstateB8ue170006Ej, symObjAddr: 0x1DB0, symBinAddr: 0x100002990, symSize: 0x30 }
  - { offsetInCU: 0xEA3E, offset: 0xEA3E, size: 0x8, addend: 0x0, symName: __ZNSt3__14listIiNS_9allocatorIiEEEC2B8ue170006Ev, symObjAddr: 0x1E00, symBinAddr: 0x1000029E0, symSize: 0x20 }
  - { offsetInCU: 0xEA68, offset: 0xEA68, size: 0x8, addend: 0x0, symName: __ZNSt3__110__list_impIiNS_9allocatorIiEEEC2Ev, symObjAddr: 0x1E20, symBinAddr: 0x100002A00, symSize: 0x40 }
  - { offsetInCU: 0xEA94, offset: 0xEA94, size: 0x8, addend: 0x0, symName: __ZNSt3__116__list_node_baseIiPvEC1B8ue170006Ev, symObjAddr: 0x1E60, symBinAddr: 0x100002A40, symSize: 0x20 }
  - { offsetInCU: 0xEAC3, offset: 0xEAC3, size: 0x8, addend: 0x0, symName: __ZNSt3__117__compressed_pairImNS_9allocatorINS_11__list_nodeIiPvEEEEEC1B8ue170006IiNS_18__default_init_tagEEEOT_OT0_, symObjAddr: 0x1E80, symBinAddr: 0x100002A60, symSize: 0x30 }
  - { offsetInCU: 0xEB1B, offset: 0xEB1B, size: 0x8, addend: 0x0, symName: __ZNSt3__116__list_node_baseIiPvEC2B8ue170006Ev, symObjAddr: 0x1EB0, symBinAddr: 0x100002A90, symSize: 0x50 }
  - { offsetInCU: 0xEB45, offset: 0xEB45, size: 0x8, addend: 0x0, symName: __ZNSt3__117__compressed_pairImNS_9allocatorINS_11__list_nodeIiPvEEEEEC2B8ue170006IiNS_18__default_init_tagEEEOT_OT0_, symObjAddr: 0x1F00, symBinAddr: 0x100002AE0, symSize: 0x40 }
  - { offsetInCU: 0xEB9D, offset: 0xEB9D, size: 0x8, addend: 0x0, symName: __ZNSt3__122__compressed_pair_elemImLi0ELb0EEC2B8ue170006IivEEOT_, symObjAddr: 0x1F40, symBinAddr: 0x100002B20, symSize: 0x20 }
  - { offsetInCU: 0xEBDF, offset: 0xEBDF, size: 0x8, addend: 0x0, symName: __ZNSt3__122__compressed_pair_elemINS_9allocatorINS_11__list_nodeIiPvEEEELi1ELb1EEC2B8ue170006ENS_18__default_init_tagE, symObjAddr: 0x1F60, symBinAddr: 0x100002B40, symSize: 0x20 }
  - { offsetInCU: 0xEC14, offset: 0xEC14, size: 0x8, addend: 0x0, symName: __ZNSt3__19allocatorINS_11__list_nodeIiPvEEEC2B8ue170006Ev, symObjAddr: 0x1F80, symBinAddr: 0x100002B60, symSize: 0x20 }
  - { offsetInCU: 0xEC3E, offset: 0xEC3E, size: 0x8, addend: 0x0, symName: __ZNSt3__116__non_trivial_ifILb1ENS_9allocatorINS_11__list_nodeIiPvEEEEEC2B8ue170006Ev, symObjAddr: 0x1FA0, symBinAddr: 0x100002B80, symSize: 0x10 }
  - { offsetInCU: 0xEC68, offset: 0xEC68, size: 0x8, addend: 0x0, symName: __ZNSt3__13mapIiNS_15__list_iteratorIiPvEENS_4lessIiEENS_9allocatorINS_4pairIKiS3_EEEEEC2B8ue170006Ev, symObjAddr: 0x1FB0, symBinAddr: 0x100002B90, symSize: 0x30 }
  - { offsetInCU: 0xEC92, offset: 0xEC92, size: 0x8, addend: 0x0, symName: __ZNSt3__119__map_value_compareIiNS_12__value_typeIiNS_15__list_iteratorIiPvEEEENS_4lessIiEELb1EEC1B8ue170006ES7_, symObjAddr: 0x1FE0, symBinAddr: 0x100002BC0, symSize: 0x20 }
  - { offsetInCU: 0xECCB, offset: 0xECCB, size: 0x8, addend: 0x0, symName: __ZNSt3__16__treeINS_12__value_typeIiNS_15__list_iteratorIiPvEEEENS_19__map_value_compareIiS5_NS_4lessIiEELb1EEENS_9allocatorIS5_EEEC1ERKS9_, symObjAddr: 0x2000, symBinAddr: 0x100002BE0, symSize: 0x30 }
  - { offsetInCU: 0xED06, offset: 0xED06, size: 0x8, addend: 0x0, symName: __ZNSt3__119__map_value_compareIiNS_12__value_typeIiNS_15__list_iteratorIiPvEEEENS_4lessIiEELb1EEC2B8ue170006ES7_, symObjAddr: 0x2030, symBinAddr: 0x100002C10, symSize: 0x10 }
  - { offsetInCU: 0xED3F, offset: 0xED3F, size: 0x8, addend: 0x0, symName: __ZNSt3__16__treeINS_12__value_typeIiNS_15__list_iteratorIiPvEEEENS_19__map_value_compareIiS5_NS_4lessIiEELb1EEENS_9allocatorIS5_EEEC2ERKS9_, symObjAddr: 0x2040, symBinAddr: 0x100002C20, symSize: 0x60 }
  - { offsetInCU: 0xED7A, offset: 0xED7A, size: 0x8, addend: 0x0, symName: __ZNSt3__117__compressed_pairINS_15__tree_end_nodeIPNS_16__tree_node_baseIPvEEEENS_9allocatorINS_11__tree_nodeINS_12__value_typeIiNS_15__list_iteratorIiS3_EEEES3_EEEEEC1B8ue170006ILb1EvEEv, symObjAddr: 0x20A0, symBinAddr: 0x100002C80, symSize: 0x20 }
  - { offsetInCU: 0xEDAF, offset: 0xEDAF, size: 0x8, addend: 0x0, symName: __ZNSt3__117__compressed_pairImNS_19__map_value_compareIiNS_12__value_typeIiNS_15__list_iteratorIiPvEEEENS_4lessIiEELb1EEEEC1B8ue170006IiRKS9_EEOT_OT0_, symObjAddr: 0x20C0, symBinAddr: 0x100002CA0, symSize: 0x30 }
  - { offsetInCU: 0xEE07, offset: 0xEE07, size: 0x8, addend: 0x0, symName: __ZNSt3__16__treeINS_12__value_typeIiNS_15__list_iteratorIiPvEEEENS_19__map_value_compareIiS5_NS_4lessIiEELb1EEENS_9allocatorIS5_EEE10__end_nodeB8ue170006Ev, symObjAddr: 0x20F0, symBinAddr: 0x100002CD0, symSize: 0x30 }
  - { offsetInCU: 0xEE2D, offset: 0xEE2D, size: 0x8, addend: 0x0, symName: __ZNSt3__16__treeINS_12__value_typeIiNS_15__list_iteratorIiPvEEEENS_19__map_value_compareIiS5_NS_4lessIiEELb1EEENS_9allocatorIS5_EEE12__begin_nodeB8ue170006Ev, symObjAddr: 0x2120, symBinAddr: 0x100002D00, symSize: 0x10 }
  - { offsetInCU: 0xEE53, offset: 0xEE53, size: 0x8, addend: 0x0, symName: __ZNSt3__117__compressed_pairINS_15__tree_end_nodeIPNS_16__tree_node_baseIPvEEEENS_9allocatorINS_11__tree_nodeINS_12__value_typeIiNS_15__list_iteratorIiS3_EEEES3_EEEEEC2B8ue170006ILb1EvEEv, symObjAddr: 0x2130, symBinAddr: 0x100002D10, symSize: 0x30 }
  - { offsetInCU: 0xEE88, offset: 0xEE88, size: 0x8, addend: 0x0, symName: __ZNSt3__122__compressed_pair_elemINS_15__tree_end_nodeIPNS_16__tree_node_baseIPvEEEELi0ELb0EEC2B8ue170006ENS_16__value_init_tagE, symObjAddr: 0x2160, symBinAddr: 0x100002D40, symSize: 0x20 }
  - { offsetInCU: 0xEEBD, offset: 0xEEBD, size: 0x8, addend: 0x0, symName: __ZNSt3__122__compressed_pair_elemINS_9allocatorINS_11__tree_nodeINS_12__value_typeIiNS_15__list_iteratorIiPvEEEES5_EEEELi1ELb1EEC2B8ue170006ENS_16__value_init_tagE, symObjAddr: 0x2180, symBinAddr: 0x100002D60, symSize: 0x20 }
  - { offsetInCU: 0xEEF2, offset: 0xEEF2, size: 0x8, addend: 0x0, symName: __ZNSt3__115__tree_end_nodeIPNS_16__tree_node_baseIPvEEEC1B8ue170006Ev, symObjAddr: 0x21A0, symBinAddr: 0x100002D80, symSize: 0x20 }
  - { offsetInCU: 0xEF1C, offset: 0xEF1C, size: 0x8, addend: 0x0, symName: __ZNSt3__115__tree_end_nodeIPNS_16__tree_node_baseIPvEEEC2B8ue170006Ev, symObjAddr: 0x21C0, symBinAddr: 0x100002DA0, symSize: 0x20 }
  - { offsetInCU: 0xEF46, offset: 0xEF46, size: 0x8, addend: 0x0, symName: __ZNSt3__19allocatorINS_11__tree_nodeINS_12__value_typeIiNS_15__list_iteratorIiPvEEEES4_EEEC2B8ue170006Ev, symObjAddr: 0x21E0, symBinAddr: 0x100002DC0, symSize: 0x20 }
  - { offsetInCU: 0xEF70, offset: 0xEF70, size: 0x8, addend: 0x0, symName: __ZNSt3__116__non_trivial_ifILb1ENS_9allocatorINS_11__tree_nodeINS_12__value_typeIiNS_15__list_iteratorIiPvEEEES5_EEEEEC2B8ue170006Ev, symObjAddr: 0x2200, symBinAddr: 0x100002DE0, symSize: 0x10 }
  - { offsetInCU: 0xEF9A, offset: 0xEF9A, size: 0x8, addend: 0x0, symName: __ZNSt3__117__compressed_pairImNS_19__map_value_compareIiNS_12__value_typeIiNS_15__list_iteratorIiPvEEEENS_4lessIiEELb1EEEEC2B8ue170006IiRKS9_EEOT_OT0_, symObjAddr: 0x2210, symBinAddr: 0x100002DF0, symSize: 0x40 }
  - { offsetInCU: 0xEFF2, offset: 0xEFF2, size: 0x8, addend: 0x0, symName: __ZNSt3__122__compressed_pair_elemINS_19__map_value_compareIiNS_12__value_typeIiNS_15__list_iteratorIiPvEEEENS_4lessIiEELb1EEELi1ELb1EEC2B8ue170006IRKS9_vEEOT_, symObjAddr: 0x2250, symBinAddr: 0x100002E30, symSize: 0x10 }
  - { offsetInCU: 0xF034, offset: 0xF034, size: 0x8, addend: 0x0, symName: __ZNSt3__114pointer_traitsIPNS_15__tree_end_nodeIPNS_16__tree_node_baseIPvEEEEE10pointer_toB8ue170006ERS6_, symObjAddr: 0x2260, symBinAddr: 0x100002E40, symSize: 0x10 }
  - { offsetInCU: 0xF057, offset: 0xF057, size: 0x8, addend: 0x0, symName: __ZNSt3__117__compressed_pairINS_15__tree_end_nodeIPNS_16__tree_node_baseIPvEEEENS_9allocatorINS_11__tree_nodeINS_12__value_typeIiNS_15__list_iteratorIiS3_EEEES3_EEEEE5firstB8ue170006Ev, symObjAddr: 0x2270, symBinAddr: 0x100002E50, symSize: 0x20 }
  - { offsetInCU: 0xF07D, offset: 0xF07D, size: 0x8, addend: 0x0, symName: __ZNSt3__122__compressed_pair_elemINS_15__tree_end_nodeIPNS_16__tree_node_baseIPvEEEELi0ELb0EE5__getB8ue170006Ev, symObjAddr: 0x2290, symBinAddr: 0x100002E70, symSize: 0x10 }
  - { offsetInCU: 0xF0A3, offset: 0xF0A3, size: 0x8, addend: 0x0, symName: __ZNSt3__13mapIiNS_15__list_iteratorIiPvEENS_4lessIiEENS_9allocatorINS_4pairIKiS3_EEEEED2B8ue170006Ev, symObjAddr: 0x22A0, symBinAddr: 0x100002E80, symSize: 0x20 }
  - { offsetInCU: 0xF0CD, offset: 0xF0CD, size: 0x8, addend: 0x0, symName: __ZNSt3__16__treeINS_12__value_typeIiNS_15__list_iteratorIiPvEEEENS_19__map_value_compareIiS5_NS_4lessIiEELb1EEENS_9allocatorIS5_EEED1Ev, symObjAddr: 0x22C0, symBinAddr: 0x100002EA0, symSize: 0x20 }
  - { offsetInCU: 0xF0F9, offset: 0xF0F9, size: 0x8, addend: 0x0, symName: __ZNSt3__16__treeINS_12__value_typeIiNS_15__list_iteratorIiPvEEEENS_19__map_value_compareIiS5_NS_4lessIiEELb1EEENS_9allocatorIS5_EEED2Ev, symObjAddr: 0x22E0, symBinAddr: 0x100002EC0, symSize: 0x30 }
  - { offsetInCU: 0xF125, offset: 0xF125, size: 0x8, addend: 0x0, symName: __ZNSt3__16__treeINS_12__value_typeIiNS_15__list_iteratorIiPvEEEENS_19__map_value_compareIiS5_NS_4lessIiEELb1EEENS_9allocatorIS5_EEE7destroyEPNS_11__tree_nodeIS5_S3_EE, symObjAddr: 0x2310, symBinAddr: 0x100002EF0, symSize: 0xC0 }
  - { offsetInCU: 0xF179, offset: 0xF179, size: 0x8, addend: 0x0, symName: __ZNKSt3__16__treeINS_12__value_typeIiNS_15__list_iteratorIiPvEEEENS_19__map_value_compareIiS5_NS_4lessIiEELb1EEENS_9allocatorIS5_EEE6__rootB8ue170006Ev, symObjAddr: 0x23D0, symBinAddr: 0x100002FB0, symSize: 0x20 }
  - { offsetInCU: 0xF19F, offset: 0xF19F, size: 0x8, addend: 0x0, symName: __ZNSt3__16__treeINS_12__value_typeIiNS_15__list_iteratorIiPvEEEENS_19__map_value_compareIiS5_NS_4lessIiEELb1EEENS_9allocatorIS5_EEE12__node_allocB8ue170006Ev, symObjAddr: 0x23F0, symBinAddr: 0x100002FD0, symSize: 0x20 }
  - { offsetInCU: 0xF1C5, offset: 0xF1C5, size: 0x8, addend: 0x0, symName: __ZNSt3__116allocator_traitsINS_9allocatorINS_11__tree_nodeINS_12__value_typeIiNS_15__list_iteratorIiPvEEEES5_EEEEE7destroyB8ue170006INS_4pairIKiS6_EEvvEEvRS9_PT_, symObjAddr: 0x2410, symBinAddr: 0x100002FF0, symSize: 0x10 }
  - { offsetInCU: 0xF200, offset: 0xF200, size: 0x8, addend: 0x0, symName: __ZNSt3__122__tree_key_value_typesINS_12__value_typeIiNS_15__list_iteratorIiPvEEEEE9__get_ptrB8ue170006ERS5_, symObjAddr: 0x2420, symBinAddr: 0x100003000, symSize: 0x20 }
  - { offsetInCU: 0xF224, offset: 0xF224, size: 0x8, addend: 0x0, symName: __ZNSt3__116allocator_traitsINS_9allocatorINS_11__tree_nodeINS_12__value_typeIiNS_15__list_iteratorIiPvEEEES5_EEEEE10deallocateB8ue170006ERS9_PS8_m, symObjAddr: 0x2440, symBinAddr: 0x100003020, symSize: 0x30 }
  - { offsetInCU: 0xF266, offset: 0xF266, size: 0x8, addend: 0x0, symName: __ZNSt3__117__compressed_pairINS_15__tree_end_nodeIPNS_16__tree_node_baseIPvEEEENS_9allocatorINS_11__tree_nodeINS_12__value_typeIiNS_15__list_iteratorIiS3_EEEES3_EEEEE6secondB8ue170006Ev, symObjAddr: 0x2470, symBinAddr: 0x100003050, symSize: 0x20 }
  - { offsetInCU: 0xF28C, offset: 0xF28C, size: 0x8, addend: 0x0, symName: __ZNSt3__122__compressed_pair_elemINS_9allocatorINS_11__tree_nodeINS_12__value_typeIiNS_15__list_iteratorIiPvEEEES5_EEEELi1ELb1EE5__getB8ue170006Ev, symObjAddr: 0x2490, symBinAddr: 0x100003070, symSize: 0x10 }
  - { offsetInCU: 0xF2B2, offset: 0xF2B2, size: 0x8, addend: 0x0, symName: __ZNSt3__112__value_typeIiNS_15__list_iteratorIiPvEEE11__get_valueB8ue170006Ev, symObjAddr: 0x24A0, symBinAddr: 0x100003080, symSize: 0x10 }
  - { offsetInCU: 0xF2D8, offset: 0xF2D8, size: 0x8, addend: 0x0, symName: __ZNSt3__19allocatorINS_11__tree_nodeINS_12__value_typeIiNS_15__list_iteratorIiPvEEEES4_EEE10deallocateB8ue170006EPS7_m, symObjAddr: 0x24B0, symBinAddr: 0x100003090, symSize: 0x80 }
  - { offsetInCU: 0xF31A, offset: 0xF31A, size: 0x8, addend: 0x0, symName: __ZNKSt3__16__treeINS_12__value_typeIiNS_15__list_iteratorIiPvEEEENS_19__map_value_compareIiS5_NS_4lessIiEELb1EEENS_9allocatorIS5_EEE10__end_nodeB8ue170006Ev, symObjAddr: 0x2530, symBinAddr: 0x100003110, symSize: 0x30 }
  - { offsetInCU: 0xF340, offset: 0xF340, size: 0x8, addend: 0x0, symName: __ZNKSt3__117__compressed_pairINS_15__tree_end_nodeIPNS_16__tree_node_baseIPvEEEENS_9allocatorINS_11__tree_nodeINS_12__value_typeIiNS_15__list_iteratorIiS3_EEEES3_EEEEE5firstB8ue170006Ev, symObjAddr: 0x2560, symBinAddr: 0x100003140, symSize: 0x20 }
  - { offsetInCU: 0xF366, offset: 0xF366, size: 0x8, addend: 0x0, symName: __ZNKSt3__122__compressed_pair_elemINS_15__tree_end_nodeIPNS_16__tree_node_baseIPvEEEELi0ELb0EE5__getB8ue170006Ev, symObjAddr: 0x2580, symBinAddr: 0x100003160, symSize: 0x10 }
  - { offsetInCU: 0xF38C, offset: 0xF38C, size: 0x8, addend: 0x0, symName: __ZNSt3__16__treeINS_12__value_typeIiNS_15__list_iteratorIiPvEEEENS_19__map_value_compareIiS5_NS_4lessIiEELb1EEENS_9allocatorIS5_EEE4findIiEENS_15__tree_iteratorIS5_PNS_11__tree_nodeIS5_S3_EElEERKT_, symObjAddr: 0x2590, symBinAddr: 0x100003170, symSize: 0xE0 }
  - { offsetInCU: 0xF3DB, offset: 0xF3DB, size: 0x8, addend: 0x0, symName: __ZNSt3__114__map_iteratorINS_15__tree_iteratorINS_12__value_typeIiNS_15__list_iteratorIiPvEEEEPNS_11__tree_nodeIS6_S4_EElEEEC1B8ue170006ESA_, symObjAddr: 0x2670, symBinAddr: 0x100003250, symSize: 0x30 }
  - { offsetInCU: 0xF414, offset: 0xF414, size: 0x8, addend: 0x0, symName: __ZNSt3__16__treeINS_12__value_typeIiNS_15__list_iteratorIiPvEEEENS_19__map_value_compareIiS5_NS_4lessIiEELb1EEENS_9allocatorIS5_EEE13__lower_boundIiEENS_15__tree_iteratorIS5_PNS_11__tree_nodeIS5_S3_EElEERKT_SH_PNS_15__tree_end_nodeIPNS_16__tree_node_baseIS3_EEEE, symObjAddr: 0x26A0, symBinAddr: 0x100003280, symSize: 0x90 }
  - { offsetInCU: 0xF472, offset: 0xF472, size: 0x8, addend: 0x0, symName: __ZNSt3__16__treeINS_12__value_typeIiNS_15__list_iteratorIiPvEEEENS_19__map_value_compareIiS5_NS_4lessIiEELb1EEENS_9allocatorIS5_EEE3endB8ue170006Ev, symObjAddr: 0x2760, symBinAddr: 0x100003340, symSize: 0x30 }
  - { offsetInCU: 0xF498, offset: 0xF498, size: 0x8, addend: 0x0, symName: __ZNSt3__16__treeINS_12__value_typeIiNS_15__list_iteratorIiPvEEEENS_19__map_value_compareIiS5_NS_4lessIiEELb1EEENS_9allocatorIS5_EEE10value_compB8ue170006Ev, symObjAddr: 0x2790, symBinAddr: 0x100003370, symSize: 0x20 }
  - { offsetInCU: 0xF4BE, offset: 0xF4BE, size: 0x8, addend: 0x0, symName: __ZNKSt3__119__map_value_compareIiNS_12__value_typeIiNS_15__list_iteratorIiPvEEEENS_4lessIiEELb1EEclB8ue170006ERKiRKS5_, symObjAddr: 0x27B0, symBinAddr: 0x100003390, symSize: 0x50 }
  - { offsetInCU: 0xF502, offset: 0xF502, size: 0x8, addend: 0x0, symName: __ZNKSt3__115__tree_iteratorINS_12__value_typeIiNS_15__list_iteratorIiPvEEEEPNS_11__tree_nodeIS5_S3_EElEdeB8ue170006Ev, symObjAddr: 0x2800, symBinAddr: 0x1000033E0, symSize: 0x20 }
  - { offsetInCU: 0xF528, offset: 0xF528, size: 0x8, addend: 0x0, symName: __ZNKSt3__119__map_value_compareIiNS_12__value_typeIiNS_15__list_iteratorIiPvEEEENS_4lessIiEELb1EEclB8ue170006ERKS5_RKi, symObjAddr: 0x2820, symBinAddr: 0x100003400, symSize: 0x40 }
  - { offsetInCU: 0xF56C, offset: 0xF56C, size: 0x8, addend: 0x0, symName: __ZNSt3__115__tree_iteratorINS_12__value_typeIiNS_15__list_iteratorIiPvEEEEPNS_11__tree_nodeIS5_S3_EElEC1B8ue170006EPNS_15__tree_end_nodeIPNS_16__tree_node_baseIS3_EEEE, symObjAddr: 0x2860, symBinAddr: 0x100003440, symSize: 0x30 }
  - { offsetInCU: 0xF5A5, offset: 0xF5A5, size: 0x8, addend: 0x0, symName: __ZNKSt3__14lessIiEclB8ue170006ERKiS3_, symObjAddr: 0x2890, symBinAddr: 0x100003470, symSize: 0x30 }
  - { offsetInCU: 0xF5E9, offset: 0xF5E9, size: 0x8, addend: 0x0, symName: __ZNKSt3__112__value_typeIiNS_15__list_iteratorIiPvEEE11__get_valueB8ue170006Ev, symObjAddr: 0x28C0, symBinAddr: 0x1000034A0, symSize: 0x10 }
  - { offsetInCU: 0xF60F, offset: 0xF60F, size: 0x8, addend: 0x0, symName: __ZNSt3__115__tree_iteratorINS_12__value_typeIiNS_15__list_iteratorIiPvEEEEPNS_11__tree_nodeIS5_S3_EElEC2B8ue170006EPNS_15__tree_end_nodeIPNS_16__tree_node_baseIS3_EEEE, symObjAddr: 0x28D0, symBinAddr: 0x1000034B0, symSize: 0x20 }
  - { offsetInCU: 0xF648, offset: 0xF648, size: 0x8, addend: 0x0, symName: __ZNSt3__117__compressed_pairImNS_19__map_value_compareIiNS_12__value_typeIiNS_15__list_iteratorIiPvEEEENS_4lessIiEELb1EEEE6secondB8ue170006Ev, symObjAddr: 0x2920, symBinAddr: 0x100003500, symSize: 0x20 }
  - { offsetInCU: 0xF66E, offset: 0xF66E, size: 0x8, addend: 0x0, symName: __ZNSt3__122__compressed_pair_elemINS_19__map_value_compareIiNS_12__value_typeIiNS_15__list_iteratorIiPvEEEENS_4lessIiEELb1EEELi1ELb1EE5__getB8ue170006Ev, symObjAddr: 0x2940, symBinAddr: 0x100003520, symSize: 0x10 }
  - { offsetInCU: 0xF694, offset: 0xF694, size: 0x8, addend: 0x0, symName: __ZNKSt3__115__tree_iteratorINS_12__value_typeIiNS_15__list_iteratorIiPvEEEEPNS_11__tree_nodeIS5_S3_EElE8__get_npB8ue170006Ev, symObjAddr: 0x2950, symBinAddr: 0x100003530, symSize: 0x20 }
  - { offsetInCU: 0xF6BA, offset: 0xF6BA, size: 0x8, addend: 0x0, symName: __ZNSt3__114__map_iteratorINS_15__tree_iteratorINS_12__value_typeIiNS_15__list_iteratorIiPvEEEEPNS_11__tree_nodeIS6_S4_EElEEEC2B8ue170006ESA_, symObjAddr: 0x2970, symBinAddr: 0x100003550, symSize: 0x20 }
  - { offsetInCU: 0xF6F3, offset: 0xF6F3, size: 0x8, addend: 0x0, symName: __ZNSt3__16__treeINS_12__value_typeIiNS_15__list_iteratorIiPvEEEENS_19__map_value_compareIiS5_NS_4lessIiEELb1EEENS_9allocatorIS5_EEE12__find_equalIiEERPNS_16__tree_node_baseIS3_EERPNS_15__tree_end_nodeISG_EERKT_, symObjAddr: 0x2990, symBinAddr: 0x100003570, symSize: 0x180 }
  - { offsetInCU: 0xF760, offset: 0xF760, size: 0x8, addend: 0x0, symName: __ZNSt3__13mapIiNS_15__list_iteratorIiPvEENS_4lessIiEENS_9allocatorINS_4pairIKiS3_EEEEE25__construct_node_with_keyERS8_, symObjAddr: 0x2B10, symBinAddr: 0x1000036F0, symSize: 0x140 }
  - { offsetInCU: 0xF7B6, offset: 0xF7B6, size: 0x8, addend: 0x0, symName: __ZNSt3__16__treeINS_12__value_typeIiNS_15__list_iteratorIiPvEEEENS_19__map_value_compareIiS5_NS_4lessIiEELb1EEENS_9allocatorIS5_EEE16__insert_node_atEPNS_15__tree_end_nodeIPNS_16__tree_node_baseIS3_EEEERSG_SG_, symObjAddr: 0x2C50, symBinAddr: 0x100003830, symSize: 0xC0 }
  - { offsetInCU: 0xF80B, offset: 0xF80B, size: 0x8, addend: 0x0, symName: __ZNKSt3__110unique_ptrINS_11__tree_nodeINS_12__value_typeIiNS_15__list_iteratorIiPvEEEES4_EENS_21__map_node_destructorINS_9allocatorIS7_EEEEE3getB8ue170006Ev, symObjAddr: 0x2D10, symBinAddr: 0x1000038F0, symSize: 0x20 }
  - { offsetInCU: 0xF831, offset: 0xF831, size: 0x8, addend: 0x0, symName: __ZNSt3__110unique_ptrINS_11__tree_nodeINS_12__value_typeIiNS_15__list_iteratorIiPvEEEES4_EENS_21__map_node_destructorINS_9allocatorIS7_EEEEE7releaseB8ue170006Ev, symObjAddr: 0x2D30, symBinAddr: 0x100003910, symSize: 0x40 }
  - { offsetInCU: 0xF866, offset: 0xF866, size: 0x8, addend: 0x0, symName: __ZNSt3__110unique_ptrINS_11__tree_nodeINS_12__value_typeIiNS_15__list_iteratorIiPvEEEES4_EENS_21__map_node_destructorINS_9allocatorIS7_EEEEED1B8ue170006Ev, symObjAddr: 0x2D70, symBinAddr: 0x100003950, symSize: 0x20 }
  - { offsetInCU: 0xF890, offset: 0xF890, size: 0x8, addend: 0x0, symName: __ZNKSt3__16__treeINS_12__value_typeIiNS_15__list_iteratorIiPvEEEENS_19__map_value_compareIiS5_NS_4lessIiEELb1EEENS_9allocatorIS5_EEE10__root_ptrB8ue170006Ev, symObjAddr: 0x2D90, symBinAddr: 0x100003970, symSize: 0x20 }
  - { offsetInCU: 0xF8B6, offset: 0xF8B6, size: 0x8, addend: 0x0, symName: __ZNSt3__116allocator_traitsINS_9allocatorINS_11__tree_nodeINS_12__value_typeIiNS_15__list_iteratorIiPvEEEES5_EEEEE8allocateB8ue170006ERS9_m, symObjAddr: 0x2DB0, symBinAddr: 0x100003990, symSize: 0x30 }
  - { offsetInCU: 0xF8E9, offset: 0xF8E9, size: 0x8, addend: 0x0, symName: __ZNSt3__121__map_node_destructorINS_9allocatorINS_11__tree_nodeINS_12__value_typeIiNS_15__list_iteratorIiPvEEEES5_EEEEEC1B8ue170006ERS9_, symObjAddr: 0x2DE0, symBinAddr: 0x1000039C0, symSize: 0x30 }
  - { offsetInCU: 0xF927, offset: 0xF927, size: 0x8, addend: 0x0, symName: __ZNSt3__110unique_ptrINS_11__tree_nodeINS_12__value_typeIiNS_15__list_iteratorIiPvEEEES4_EENS_21__map_node_destructorINS_9allocatorIS7_EEEEEC1B8ue170006ILb1EvEEPS7_NS_16__dependent_typeINS_27__unique_ptr_deleter_sfinaeISB_EEXT_EE20__good_rval_ref_typeE, symObjAddr: 0x2E10, symBinAddr: 0x1000039F0, symSize: 0x30 }
  - { offsetInCU: 0xF978, offset: 0xF978, size: 0x8, addend: 0x0, symName: __ZNSt3__116allocator_traitsINS_9allocatorINS_11__tree_nodeINS_12__value_typeIiNS_15__list_iteratorIiPvEEEES5_EEEEE9constructB8ue170006IKiJRSC_EvEEvRS9_PT_DpOT0_, symObjAddr: 0x2E40, symBinAddr: 0x100003A20, symSize: 0x30 }
  - { offsetInCU: 0xF9CF, offset: 0xF9CF, size: 0x8, addend: 0x0, symName: __ZNKSt3__110unique_ptrINS_11__tree_nodeINS_12__value_typeIiNS_15__list_iteratorIiPvEEEES4_EENS_21__map_node_destructorINS_9allocatorIS7_EEEEEptB8ue170006Ev, symObjAddr: 0x2E70, symBinAddr: 0x100003A50, symSize: 0x20 }
  - { offsetInCU: 0xF9F5, offset: 0xF9F5, size: 0x8, addend: 0x0, symName: __ZNSt3__110unique_ptrINS_11__tree_nodeINS_12__value_typeIiNS_15__list_iteratorIiPvEEEES4_EENS_21__map_node_destructorINS_9allocatorIS7_EEEEE11get_deleterB8ue170006Ev, symObjAddr: 0x2E90, symBinAddr: 0x100003A70, symSize: 0x20 }
  - { offsetInCU: 0xFA20, offset: 0xFA20, size: 0x8, addend: 0x0, symName: __ZNSt3__116allocator_traitsINS_9allocatorINS_11__tree_nodeINS_12__value_typeIiNS_15__list_iteratorIiPvEEEES5_EEEEE9constructB8ue170006IS6_JEvEEvRS9_PT_DpOT0_, symObjAddr: 0x2EB0, symBinAddr: 0x100003A90, symSize: 0x30 }
  - { offsetInCU: 0xFA62, offset: 0xFA62, size: 0x8, addend: 0x0, symName: __ZNSt3__19allocatorINS_11__tree_nodeINS_12__value_typeIiNS_15__list_iteratorIiPvEEEES4_EEE8allocateB8ue170006Em, symObjAddr: 0x2EE0, symBinAddr: 0x100003AC0, symSize: 0x80 }
  - { offsetInCU: 0xFAA0, offset: 0xFAA0, size: 0x8, addend: 0x0, symName: __ZNSt3__116allocator_traitsINS_9allocatorINS_11__tree_nodeINS_12__value_typeIiNS_15__list_iteratorIiPvEEEES5_EEEEE8max_sizeB8ue170006IS9_vEEmRKS9_, symObjAddr: 0x2F60, symBinAddr: 0x100003B40, symSize: 0x20 }
  - { offsetInCU: 0xFACE, offset: 0xFACE, size: 0x8, addend: 0x0, symName: __ZNKSt3__19allocatorINS_11__tree_nodeINS_12__value_typeIiNS_15__list_iteratorIiPvEEEES4_EEE8max_sizeB8ue170006Ev, symObjAddr: 0x2FE0, symBinAddr: 0x100003BC0, symSize: 0x20 }
  - { offsetInCU: 0xFAF4, offset: 0xFAF4, size: 0x8, addend: 0x0, symName: __ZNSt3__121__map_node_destructorINS_9allocatorINS_11__tree_nodeINS_12__value_typeIiNS_15__list_iteratorIiPvEEEES5_EEEEEC2B8ue170006ERS9_, symObjAddr: 0x3020, symBinAddr: 0x100003C00, symSize: 0x30 }
  - { offsetInCU: 0xFB2D, offset: 0xFB2D, size: 0x8, addend: 0x0, symName: __ZNSt3__110unique_ptrINS_11__tree_nodeINS_12__value_typeIiNS_15__list_iteratorIiPvEEEES4_EENS_21__map_node_destructorINS_9allocatorIS7_EEEEEC2B8ue170006ILb1EvEEPS7_NS_16__dependent_typeINS_27__unique_ptr_deleter_sfinaeISB_EEXT_EE20__good_rval_ref_typeE, symObjAddr: 0x3050, symBinAddr: 0x100003C30, symSize: 0x50 }
  - { offsetInCU: 0xFB7E, offset: 0xFB7E, size: 0x8, addend: 0x0, symName: __ZNSt3__117__compressed_pairIPNS_11__tree_nodeINS_12__value_typeIiNS_15__list_iteratorIiPvEEEES4_EENS_21__map_node_destructorINS_9allocatorIS7_EEEEEC1B8ue170006IRS8_SC_EEOT_OT0_, symObjAddr: 0x30A0, symBinAddr: 0x100003C80, symSize: 0x30 }
  - { offsetInCU: 0xFBD6, offset: 0xFBD6, size: 0x8, addend: 0x0, symName: __ZNSt3__117__compressed_pairIPNS_11__tree_nodeINS_12__value_typeIiNS_15__list_iteratorIiPvEEEES4_EENS_21__map_node_destructorINS_9allocatorIS7_EEEEEC2B8ue170006IRS8_SC_EEOT_OT0_, symObjAddr: 0x30D0, symBinAddr: 0x100003CB0, symSize: 0x40 }
  - { offsetInCU: 0xFC2E, offset: 0xFC2E, size: 0x8, addend: 0x0, symName: __ZNSt3__122__compressed_pair_elemIPNS_11__tree_nodeINS_12__value_typeIiNS_15__list_iteratorIiPvEEEES4_EELi0ELb0EEC2B8ue170006IRS8_vEEOT_, symObjAddr: 0x3110, symBinAddr: 0x100003CF0, symSize: 0x20 }
  - { offsetInCU: 0xFC70, offset: 0xFC70, size: 0x8, addend: 0x0, symName: __ZNSt3__122__compressed_pair_elemINS_21__map_node_destructorINS_9allocatorINS_11__tree_nodeINS_12__value_typeIiNS_15__list_iteratorIiPvEEEES6_EEEEEELi1ELb0EEC2B8ue170006ISB_vEEOT_, symObjAddr: 0x3130, symBinAddr: 0x100003D10, symSize: 0x30 }
  - { offsetInCU: 0xFCB2, offset: 0xFCB2, size: 0x8, addend: 0x0, symName: __ZNSt3__19allocatorINS_11__tree_nodeINS_12__value_typeIiNS_15__list_iteratorIiPvEEEES4_EEE9constructB8ue170006IKiJRSA_EEEvPT_DpOT0_, symObjAddr: 0x3160, symBinAddr: 0x100003D40, symSize: 0x20 }
  - { offsetInCU: 0xFD08, offset: 0xFD08, size: 0x8, addend: 0x0, symName: __ZNKSt3__117__compressed_pairIPNS_11__tree_nodeINS_12__value_typeIiNS_15__list_iteratorIiPvEEEES4_EENS_21__map_node_destructorINS_9allocatorIS7_EEEEE5firstB8ue170006Ev, symObjAddr: 0x3180, symBinAddr: 0x100003D60, symSize: 0x20 }
  - { offsetInCU: 0xFD2E, offset: 0xFD2E, size: 0x8, addend: 0x0, symName: __ZNKSt3__122__compressed_pair_elemIPNS_11__tree_nodeINS_12__value_typeIiNS_15__list_iteratorIiPvEEEES4_EELi0ELb0EE5__getB8ue170006Ev, symObjAddr: 0x31A0, symBinAddr: 0x100003D80, symSize: 0x10 }
  - { offsetInCU: 0xFD54, offset: 0xFD54, size: 0x8, addend: 0x0, symName: __ZNSt3__117__compressed_pairIPNS_11__tree_nodeINS_12__value_typeIiNS_15__list_iteratorIiPvEEEES4_EENS_21__map_node_destructorINS_9allocatorIS7_EEEEE6secondB8ue170006Ev, symObjAddr: 0x31B0, symBinAddr: 0x100003D90, symSize: 0x20 }
  - { offsetInCU: 0xFD7A, offset: 0xFD7A, size: 0x8, addend: 0x0, symName: __ZNSt3__122__compressed_pair_elemINS_21__map_node_destructorINS_9allocatorINS_11__tree_nodeINS_12__value_typeIiNS_15__list_iteratorIiPvEEEES6_EEEEEELi1ELb0EE5__getB8ue170006Ev, symObjAddr: 0x31D0, symBinAddr: 0x100003DB0, symSize: 0x10 }
  - { offsetInCU: 0xFDA0, offset: 0xFDA0, size: 0x8, addend: 0x0, symName: __ZNSt3__19allocatorINS_11__tree_nodeINS_12__value_typeIiNS_15__list_iteratorIiPvEEEES4_EEE9constructB8ue170006IS5_JEEEvPT_DpOT0_, symObjAddr: 0x31E0, symBinAddr: 0x100003DC0, symSize: 0x20 }
  - { offsetInCU: 0xFDE2, offset: 0xFDE2, size: 0x8, addend: 0x0, symName: __ZNSt3__115__list_iteratorIiPvEC1B8ue170006Ev, symObjAddr: 0x3200, symBinAddr: 0x100003DE0, symSize: 0x20 }
  - { offsetInCU: 0xFE0C, offset: 0xFE0C, size: 0x8, addend: 0x0, symName: __ZNSt3__115__list_iteratorIiPvEC2B8ue170006Ev, symObjAddr: 0x3220, symBinAddr: 0x100003E00, symSize: 0x20 }
  - { offsetInCU: 0xFE36, offset: 0xFE36, size: 0x8, addend: 0x0, symName: __ZNSt3__16__treeINS_12__value_typeIiNS_15__list_iteratorIiPvEEEENS_19__map_value_compareIiS5_NS_4lessIiEELb1EEENS_9allocatorIS5_EEE4sizeB8ue170006Ev, symObjAddr: 0x3580, symBinAddr: 0x100004160, symSize: 0x20 }
  - { offsetInCU: 0xFE5C, offset: 0xFE5C, size: 0x8, addend: 0x0, symName: __ZNKSt3__116__tree_node_baseIPvE15__parent_unsafeB8ue170006Ev, symObjAddr: 0x35A0, symBinAddr: 0x100004180, symSize: 0x20 }
  - { offsetInCU: 0xFE82, offset: 0xFE82, size: 0x8, addend: 0x0, symName: __ZNSt3__116__tree_node_baseIPvE12__set_parentB8ue170006EPS2_, symObjAddr: 0x3790, symBinAddr: 0x100004370, symSize: 0x20 }
  - { offsetInCU: 0xFEB7, offset: 0xFEB7, size: 0x8, addend: 0x0, symName: __ZNSt3__117__compressed_pairImNS_19__map_value_compareIiNS_12__value_typeIiNS_15__list_iteratorIiPvEEEENS_4lessIiEELb1EEEE5firstB8ue170006Ev, symObjAddr: 0x37B0, symBinAddr: 0x100004390, symSize: 0x20 }
  - { offsetInCU: 0xFEDD, offset: 0xFEDD, size: 0x8, addend: 0x0, symName: __ZNSt3__117__compressed_pairIPNS_11__tree_nodeINS_12__value_typeIiNS_15__list_iteratorIiPvEEEES4_EENS_21__map_node_destructorINS_9allocatorIS7_EEEEE5firstB8ue170006Ev, symObjAddr: 0x37D0, symBinAddr: 0x1000043B0, symSize: 0x20 }
  - { offsetInCU: 0xFF03, offset: 0xFF03, size: 0x8, addend: 0x0, symName: __ZNSt3__122__compressed_pair_elemIPNS_11__tree_nodeINS_12__value_typeIiNS_15__list_iteratorIiPvEEEES4_EELi0ELb0EE5__getB8ue170006Ev, symObjAddr: 0x37F0, symBinAddr: 0x1000043D0, symSize: 0x10 }
  - { offsetInCU: 0xFF29, offset: 0xFF29, size: 0x8, addend: 0x0, symName: __ZNSt3__110unique_ptrINS_11__tree_nodeINS_12__value_typeIiNS_15__list_iteratorIiPvEEEES4_EENS_21__map_node_destructorINS_9allocatorIS7_EEEEED2B8ue170006Ev, symObjAddr: 0x3800, symBinAddr: 0x1000043E0, symSize: 0x20 }
  - { offsetInCU: 0xFF53, offset: 0xFF53, size: 0x8, addend: 0x0, symName: __ZNSt3__110unique_ptrINS_11__tree_nodeINS_12__value_typeIiNS_15__list_iteratorIiPvEEEES4_EENS_21__map_node_destructorINS_9allocatorIS7_EEEEE5resetB8ue170006EPS7_, symObjAddr: 0x3820, symBinAddr: 0x100004400, symSize: 0x70 }
  - { offsetInCU: 0xFF97, offset: 0xFF97, size: 0x8, addend: 0x0, symName: __ZNSt3__121__map_node_destructorINS_9allocatorINS_11__tree_nodeINS_12__value_typeIiNS_15__list_iteratorIiPvEEEES5_EEEEEclB8ue170006EPS8_, symObjAddr: 0x3890, symBinAddr: 0x100004470, symSize: 0xD0 }
  - { offsetInCU: 0xFFCC, offset: 0xFFCC, size: 0x8, addend: 0x0, symName: __ZNSt3__116allocator_traitsINS_9allocatorINS_11__tree_nodeINS_12__value_typeIiNS_15__list_iteratorIiPvEEEES5_EEEEE7destroyB8ue170006IS6_vvEEvRS9_PT_, symObjAddr: 0x3960, symBinAddr: 0x100004540, symSize: 0x10 }
  - { offsetInCU: 0x10007, offset: 0x10007, size: 0x8, addend: 0x0, symName: __ZNSt3__116allocator_traitsINS_9allocatorINS_11__tree_nodeINS_12__value_typeIiNS_15__list_iteratorIiPvEEEES5_EEEEE7destroyB8ue170006IKivvEEvRS9_PT_, symObjAddr: 0x3970, symBinAddr: 0x100004550, symSize: 0x10 }
  - { offsetInCU: 0x10042, offset: 0x10042, size: 0x8, addend: 0x0, symName: __ZNSt3__121__list_const_iteratorIiPvEC2B8ue170006ERKNS_15__list_iteratorIiS1_EE, symObjAddr: 0x3980, symBinAddr: 0x100004560, symSize: 0x20 }
  - { offsetInCU: 0x1007B, offset: 0x1007B, size: 0x8, addend: 0x0, symName: __ZNSt3__14listIiNS_9allocatorIiEEE15__allocate_nodeB8ue170006ERNS1_INS_11__list_nodeIiPvEEEE, symObjAddr: 0x39A0, symBinAddr: 0x100004580, symSize: 0x80 }
  - { offsetInCU: 0x100BF, offset: 0x100BF, size: 0x8, addend: 0x0, symName: __ZNSt3__116allocator_traitsINS_9allocatorINS_11__list_nodeIiPvEEEEE9constructB8ue170006IiJRKiEvEEvRS5_PT_DpOT0_, symObjAddr: 0x3A20, symBinAddr: 0x100004600, symSize: 0x30 }
  - { offsetInCU: 0x10116, offset: 0x10116, size: 0x8, addend: 0x0, symName: __ZNKSt3__110unique_ptrINS_11__list_nodeIiPvEENS_22__allocator_destructorINS_9allocatorIS3_EEEEEptB8ue170006Ev, symObjAddr: 0x3A50, symBinAddr: 0x100004630, symSize: 0x20 }
  - { offsetInCU: 0x1013C, offset: 0x1013C, size: 0x8, addend: 0x0, symName: __ZNSt3__111__list_nodeIiPvE9__as_linkB8ue170006Ev, symObjAddr: 0x3A70, symBinAddr: 0x100004650, symSize: 0x20 }
  - { offsetInCU: 0x10162, offset: 0x10162, size: 0x8, addend: 0x0, symName: __ZNSt3__14listIiNS_9allocatorIiEEE21__link_nodes_at_frontEPNS_16__list_node_baseIiPvEES7_, symObjAddr: 0x3A90, symBinAddr: 0x100004670, symSize: 0x60 }
  - { offsetInCU: 0x101A8, offset: 0x101A8, size: 0x8, addend: 0x0, symName: __ZNSt3__110unique_ptrINS_11__list_nodeIiPvEENS_22__allocator_destructorINS_9allocatorIS3_EEEEE7releaseB8ue170006Ev, symObjAddr: 0x3AF0, symBinAddr: 0x1000046D0, symSize: 0x40 }
  - { offsetInCU: 0x101DD, offset: 0x101DD, size: 0x8, addend: 0x0, symName: __ZNSt3__110unique_ptrINS_11__list_nodeIiPvEENS_22__allocator_destructorINS_9allocatorIS3_EEEEED1B8ue170006Ev, symObjAddr: 0x3B30, symBinAddr: 0x100004710, symSize: 0x20 }
  - { offsetInCU: 0x10207, offset: 0x10207, size: 0x8, addend: 0x0, symName: __ZNSt3__116allocator_traitsINS_9allocatorINS_11__list_nodeIiPvEEEEE8allocateB8ue170006ERS5_m, symObjAddr: 0x3B50, symBinAddr: 0x100004730, symSize: 0x30 }
  - { offsetInCU: 0x1023A, offset: 0x1023A, size: 0x8, addend: 0x0, symName: __ZNSt3__122__allocator_destructorINS_9allocatorINS_11__list_nodeIiPvEEEEEC1B8ue170006ERS5_m, symObjAddr: 0x3B80, symBinAddr: 0x100004760, symSize: 0x30 }
  - { offsetInCU: 0x10285, offset: 0x10285, size: 0x8, addend: 0x0, symName: __ZNSt3__110unique_ptrINS_11__list_nodeIiPvEENS_22__allocator_destructorINS_9allocatorIS3_EEEEEC1B8ue170006ILb1EvEEPS3_NS_16__dependent_typeINS_27__unique_ptr_deleter_sfinaeIS7_EEXT_EE20__good_rval_ref_typeE, symObjAddr: 0x3BB0, symBinAddr: 0x100004790, symSize: 0x30 }
  - { offsetInCU: 0x102D6, offset: 0x102D6, size: 0x8, addend: 0x0, symName: __ZNSt3__19allocatorINS_11__list_nodeIiPvEEE8allocateB8ue170006Em, symObjAddr: 0x3BE0, symBinAddr: 0x1000047C0, symSize: 0x80 }
  - { offsetInCU: 0x10314, offset: 0x10314, size: 0x8, addend: 0x0, symName: __ZNSt3__116allocator_traitsINS_9allocatorINS_11__list_nodeIiPvEEEEE8max_sizeB8ue170006IS5_vEEmRKS5_, symObjAddr: 0x3C60, symBinAddr: 0x100004840, symSize: 0x20 }
  - { offsetInCU: 0x10342, offset: 0x10342, size: 0x8, addend: 0x0, symName: __ZNKSt3__19allocatorINS_11__list_nodeIiPvEEE8max_sizeB8ue170006Ev, symObjAddr: 0x3C80, symBinAddr: 0x100004860, symSize: 0x20 }
  - { offsetInCU: 0x10368, offset: 0x10368, size: 0x8, addend: 0x0, symName: __ZNSt3__122__allocator_destructorINS_9allocatorINS_11__list_nodeIiPvEEEEEC2B8ue170006ERS5_m, symObjAddr: 0x3CA0, symBinAddr: 0x100004880, symSize: 0x30 }
  - { offsetInCU: 0x103AE, offset: 0x103AE, size: 0x8, addend: 0x0, symName: __ZNSt3__110unique_ptrINS_11__list_nodeIiPvEENS_22__allocator_destructorINS_9allocatorIS3_EEEEEC2B8ue170006ILb1EvEEPS3_NS_16__dependent_typeINS_27__unique_ptr_deleter_sfinaeIS7_EEXT_EE20__good_rval_ref_typeE, symObjAddr: 0x3CD0, symBinAddr: 0x1000048B0, symSize: 0x50 }
  - { offsetInCU: 0x103FF, offset: 0x103FF, size: 0x8, addend: 0x0, symName: __ZNSt3__117__compressed_pairIPNS_11__list_nodeIiPvEENS_22__allocator_destructorINS_9allocatorIS3_EEEEEC1B8ue170006IRS4_S8_EEOT_OT0_, symObjAddr: 0x3D20, symBinAddr: 0x100004900, symSize: 0x30 }
  - { offsetInCU: 0x10457, offset: 0x10457, size: 0x8, addend: 0x0, symName: __ZNSt3__117__compressed_pairIPNS_11__list_nodeIiPvEENS_22__allocator_destructorINS_9allocatorIS3_EEEEEC2B8ue170006IRS4_S8_EEOT_OT0_, symObjAddr: 0x3D50, symBinAddr: 0x100004930, symSize: 0x40 }
  - { offsetInCU: 0x104AF, offset: 0x104AF, size: 0x8, addend: 0x0, symName: __ZNSt3__122__compressed_pair_elemIPNS_11__list_nodeIiPvEELi0ELb0EEC2B8ue170006IRS4_vEEOT_, symObjAddr: 0x3D90, symBinAddr: 0x100004970, symSize: 0x20 }
  - { offsetInCU: 0x104F1, offset: 0x104F1, size: 0x8, addend: 0x0, symName: __ZNSt3__122__compressed_pair_elemINS_22__allocator_destructorINS_9allocatorINS_11__list_nodeIiPvEEEEEELi1ELb0EEC2B8ue170006IS7_vEEOT_, symObjAddr: 0x3DB0, symBinAddr: 0x100004990, symSize: 0x30 }
  - { offsetInCU: 0x10533, offset: 0x10533, size: 0x8, addend: 0x0, symName: __ZNSt3__19allocatorINS_11__list_nodeIiPvEEE9constructB8ue170006IiJRKiEEEvPT_DpOT0_, symObjAddr: 0x3DE0, symBinAddr: 0x1000049C0, symSize: 0x20 }
  - { offsetInCU: 0x10589, offset: 0x10589, size: 0x8, addend: 0x0, symName: __ZNKSt3__117__compressed_pairIPNS_11__list_nodeIiPvEENS_22__allocator_destructorINS_9allocatorIS3_EEEEE5firstB8ue170006Ev, symObjAddr: 0x3E00, symBinAddr: 0x1000049E0, symSize: 0x20 }
  - { offsetInCU: 0x105AF, offset: 0x105AF, size: 0x8, addend: 0x0, symName: __ZNKSt3__122__compressed_pair_elemIPNS_11__list_nodeIiPvEELi0ELb0EE5__getB8ue170006Ev, symObjAddr: 0x3E20, symBinAddr: 0x100004A00, symSize: 0x10 }
  - { offsetInCU: 0x105D5, offset: 0x105D5, size: 0x8, addend: 0x0, symName: __ZNSt3__117__compressed_pairIPNS_11__list_nodeIiPvEENS_22__allocator_destructorINS_9allocatorIS3_EEEEE5firstB8ue170006Ev, symObjAddr: 0x3E30, symBinAddr: 0x100004A10, symSize: 0x20 }
  - { offsetInCU: 0x105FB, offset: 0x105FB, size: 0x8, addend: 0x0, symName: __ZNSt3__122__compressed_pair_elemIPNS_11__list_nodeIiPvEELi0ELb0EE5__getB8ue170006Ev, symObjAddr: 0x3E50, symBinAddr: 0x100004A30, symSize: 0x10 }
  - { offsetInCU: 0x10621, offset: 0x10621, size: 0x8, addend: 0x0, symName: __ZNSt3__110unique_ptrINS_11__list_nodeIiPvEENS_22__allocator_destructorINS_9allocatorIS3_EEEEED2B8ue170006Ev, symObjAddr: 0x3E60, symBinAddr: 0x100004A40, symSize: 0x20 }
  - { offsetInCU: 0x1064B, offset: 0x1064B, size: 0x8, addend: 0x0, symName: __ZNSt3__110unique_ptrINS_11__list_nodeIiPvEENS_22__allocator_destructorINS_9allocatorIS3_EEEEE5resetB8ue170006EPS3_, symObjAddr: 0x3E80, symBinAddr: 0x100004A60, symSize: 0x70 }
  - { offsetInCU: 0x1068F, offset: 0x1068F, size: 0x8, addend: 0x0, symName: __ZNSt3__117__compressed_pairIPNS_11__list_nodeIiPvEENS_22__allocator_destructorINS_9allocatorIS3_EEEEE6secondB8ue170006Ev, symObjAddr: 0x3EF0, symBinAddr: 0x100004AD0, symSize: 0x20 }
  - { offsetInCU: 0x106B5, offset: 0x106B5, size: 0x8, addend: 0x0, symName: __ZNSt3__122__allocator_destructorINS_9allocatorINS_11__list_nodeIiPvEEEEEclB8ue170006EPS4_, symObjAddr: 0x3F10, symBinAddr: 0x100004AF0, symSize: 0x30 }
  - { offsetInCU: 0x106E9, offset: 0x106E9, size: 0x8, addend: 0x0, symName: __ZNSt3__122__compressed_pair_elemINS_22__allocator_destructorINS_9allocatorINS_11__list_nodeIiPvEEEEEELi1ELb0EE5__getB8ue170006Ev, symObjAddr: 0x3F40, symBinAddr: 0x100004B20, symSize: 0x10 }
  - { offsetInCU: 0x1070F, offset: 0x1070F, size: 0x8, addend: 0x0, symName: __ZNSt3__14listIiNS_9allocatorIiEEEC2ERKS3_, symObjAddr: 0x3F50, symBinAddr: 0x100004B30, symSize: 0xE0 }
  - { offsetInCU: 0x10776, offset: 0x10776, size: 0x8, addend: 0x0, symName: __ZNSt3__116allocator_traitsINS_9allocatorINS_11__list_nodeIiPvEEEEE37select_on_container_copy_constructionB8ue170006IS5_vvEES5_RKS5_, symObjAddr: 0x4030, symBinAddr: 0x100004C10, symSize: 0x10 }
  - { offsetInCU: 0x107A5, offset: 0x107A5, size: 0x8, addend: 0x0, symName: __ZNKSt3__110__list_impIiNS_9allocatorIiEEE12__node_allocB8ue170006Ev, symObjAddr: 0x4040, symBinAddr: 0x100004C20, symSize: 0x20 }
  - { offsetInCU: 0x107CB, offset: 0x107CB, size: 0x8, addend: 0x0, symName: __ZNSt3__110__list_impIiNS_9allocatorIiEEEC2ERKNS1_INS_11__list_nodeIiPvEEEE, symObjAddr: 0x4060, symBinAddr: 0x100004C40, symSize: 0x40 }
  - { offsetInCU: 0x10806, offset: 0x10806, size: 0x8, addend: 0x0, symName: __ZNKSt3__14listIiNS_9allocatorIiEEE5beginB8ue170006Ev, symObjAddr: 0x40A0, symBinAddr: 0x100004C80, symSize: 0x30 }
  - { offsetInCU: 0x1082C, offset: 0x1082C, size: 0x8, addend: 0x0, symName: __ZNKSt3__14listIiNS_9allocatorIiEEE3endB8ue170006Ev, symObjAddr: 0x40D0, symBinAddr: 0x100004CB0, symSize: 0x30 }
  - { offsetInCU: 0x10852, offset: 0x10852, size: 0x8, addend: 0x0, symName: __ZNSt3__14listIiNS_9allocatorIiEEE9push_backERKi, symObjAddr: 0x4130, symBinAddr: 0x100004D10, symSize: 0x100 }
  - { offsetInCU: 0x108A7, offset: 0x108A7, size: 0x8, addend: 0x0, symName: __ZNKSt3__121__list_const_iteratorIiPvEdeB8ue170006Ev, symObjAddr: 0x4230, symBinAddr: 0x100004E10, symSize: 0x30 }
  - { offsetInCU: 0x108CD, offset: 0x108CD, size: 0x8, addend: 0x0, symName: __ZNSt3__121__list_const_iteratorIiPvEppB8ue170006Ev, symObjAddr: 0x4260, symBinAddr: 0x100004E40, symSize: 0x20 }
  - { offsetInCU: 0x108F3, offset: 0x108F3, size: 0x8, addend: 0x0, symName: __ZNKSt3__117__compressed_pairImNS_9allocatorINS_11__list_nodeIiPvEEEEE6secondB8ue170006Ev, symObjAddr: 0x4280, symBinAddr: 0x100004E60, symSize: 0x20 }
  - { offsetInCU: 0x10919, offset: 0x10919, size: 0x8, addend: 0x0, symName: __ZNKSt3__122__compressed_pair_elemINS_9allocatorINS_11__list_nodeIiPvEEEELi1ELb1EE5__getB8ue170006Ev, symObjAddr: 0x42A0, symBinAddr: 0x100004E80, symSize: 0x10 }
  - { offsetInCU: 0x1093F, offset: 0x1093F, size: 0x8, addend: 0x0, symName: __ZNSt3__117__compressed_pairImNS_9allocatorINS_11__list_nodeIiPvEEEEEC1B8ue170006IiRKS5_EEOT_OT0_, symObjAddr: 0x42B0, symBinAddr: 0x100004E90, symSize: 0x30 }
  - { offsetInCU: 0x10997, offset: 0x10997, size: 0x8, addend: 0x0, symName: __ZNSt3__117__compressed_pairImNS_9allocatorINS_11__list_nodeIiPvEEEEEC2B8ue170006IiRKS5_EEOT_OT0_, symObjAddr: 0x42E0, symBinAddr: 0x100004EC0, symSize: 0x40 }
  - { offsetInCU: 0x109EF, offset: 0x109EF, size: 0x8, addend: 0x0, symName: __ZNSt3__122__compressed_pair_elemINS_9allocatorINS_11__list_nodeIiPvEEEELi1ELb1EEC2B8ue170006IRKS5_vEEOT_, symObjAddr: 0x4320, symBinAddr: 0x100004F00, symSize: 0x10 }
  - { offsetInCU: 0x10A31, offset: 0x10A31, size: 0x8, addend: 0x0, symName: __ZNKSt3__110__list_impIiNS_9allocatorIiEEE5beginB8ue170006Ev, symObjAddr: 0x4330, symBinAddr: 0x100004F10, symSize: 0x30 }
  - { offsetInCU: 0x10A57, offset: 0x10A57, size: 0x8, addend: 0x0, symName: __ZNSt3__121__list_const_iteratorIiPvEC1B8ue170006EPNS_16__list_node_baseIiS1_EE, symObjAddr: 0x4360, symBinAddr: 0x100004F40, symSize: 0x30 }
  - { offsetInCU: 0x10A90, offset: 0x10A90, size: 0x8, addend: 0x0, symName: __ZNSt3__121__list_const_iteratorIiPvEC2B8ue170006EPNS_16__list_node_baseIiS1_EE, symObjAddr: 0x4390, symBinAddr: 0x100004F70, symSize: 0x20 }
  - { offsetInCU: 0x10AC9, offset: 0x10AC9, size: 0x8, addend: 0x0, symName: __ZNKSt3__110__list_impIiNS_9allocatorIiEEE3endB8ue170006Ev, symObjAddr: 0x43B0, symBinAddr: 0x100004F90, symSize: 0x30 }
  - { offsetInCU: 0x10AEF, offset: 0x10AEF, size: 0x8, addend: 0x0, symName: __ZNSt3__14listIiNS_9allocatorIiEEE20__link_nodes_at_backEPNS_16__list_node_baseIiPvEES7_, symObjAddr: 0x4410, symBinAddr: 0x100004FF0, symSize: 0x60 }
  - { offsetInCU: 0x10B35, offset: 0x10B35, size: 0x8, addend: 0x0, symName: __ZNKSt3__110unique_ptrINS_11__list_nodeIiPvEENS_22__allocator_destructorINS_9allocatorIS3_EEEEE3getB8ue170006Ev, symObjAddr: 0x4470, symBinAddr: 0x100005050, symSize: 0x20 }
  - { offsetInCU: 0x10B5B, offset: 0x10B5B, size: 0x8, addend: 0x0, symName: __ZNSt3__16__treeINS_12__value_typeIiNS_15__list_iteratorIiPvEEEENS_19__map_value_compareIiS5_NS_4lessIiEELb1EEENS_9allocatorIS5_EEE14__erase_uniqueIiEEmRKT_, symObjAddr: 0x4490, symBinAddr: 0x100005070, symSize: 0xA0 }
  - { offsetInCU: 0x10BAA, offset: 0x10BAA, size: 0x8, addend: 0x0, symName: __ZNSt3__16__treeINS_12__value_typeIiNS_15__list_iteratorIiPvEEEENS_19__map_value_compareIiS5_NS_4lessIiEELb1EEENS_9allocatorIS5_EEE5eraseENS_21__tree_const_iteratorIS5_PNS_11__tree_nodeIS5_S3_EElEE, symObjAddr: 0x4530, symBinAddr: 0x100005110, symSize: 0x90 }
  - { offsetInCU: 0x10C0E, offset: 0x10C0E, size: 0x8, addend: 0x0, symName: __ZNSt3__121__tree_const_iteratorINS_12__value_typeIiNS_15__list_iteratorIiPvEEEEPNS_11__tree_nodeIS5_S3_EElEC1B8ue170006ENS_15__tree_iteratorIS5_S8_lEE, symObjAddr: 0x45C0, symBinAddr: 0x1000051A0, symSize: 0x30 }
  - { offsetInCU: 0x10C47, offset: 0x10C47, size: 0x8, addend: 0x0, symName: __ZNKSt3__121__tree_const_iteratorINS_12__value_typeIiNS_15__list_iteratorIiPvEEEEPNS_11__tree_nodeIS5_S3_EElE8__get_npB8ue170006Ev, symObjAddr: 0x45F0, symBinAddr: 0x1000051D0, symSize: 0x20 }
  - { offsetInCU: 0x10C6D, offset: 0x10C6D, size: 0x8, addend: 0x0, symName: __ZNSt3__16__treeINS_12__value_typeIiNS_15__list_iteratorIiPvEEEENS_19__map_value_compareIiS5_NS_4lessIiEELb1EEENS_9allocatorIS5_EEE21__remove_node_pointerEPNS_11__tree_nodeIS5_S3_EE, symObjAddr: 0x4610, symBinAddr: 0x1000051F0, symSize: 0xC0 }
  - { offsetInCU: 0x10CB3, offset: 0x10CB3, size: 0x8, addend: 0x0, symName: __ZNKSt3__121__tree_const_iteratorINS_12__value_typeIiNS_15__list_iteratorIiPvEEEEPNS_11__tree_nodeIS5_S3_EElEdeB8ue170006Ev, symObjAddr: 0x46D0, symBinAddr: 0x1000052B0, symSize: 0x20 }
  - { offsetInCU: 0x10CD9, offset: 0x10CD9, size: 0x8, addend: 0x0, symName: __ZNSt3__115__tree_iteratorINS_12__value_typeIiNS_15__list_iteratorIiPvEEEEPNS_11__tree_nodeIS5_S3_EElEC1B8ue170006ES8_, symObjAddr: 0x46F0, symBinAddr: 0x1000052D0, symSize: 0x30 }
  - { offsetInCU: 0x10D12, offset: 0x10D12, size: 0x8, addend: 0x0, symName: __ZNSt3__115__tree_iteratorINS_12__value_typeIiNS_15__list_iteratorIiPvEEEEPNS_11__tree_nodeIS5_S3_EElEppB8ue170006Ev, symObjAddr: 0x4720, symBinAddr: 0x100005300, symSize: 0x30 }
  - { offsetInCU: 0x10D38, offset: 0x10D38, size: 0x8, addend: 0x0, symName: __ZNSt3__115__tree_iteratorINS_12__value_typeIiNS_15__list_iteratorIiPvEEEEPNS_11__tree_nodeIS5_S3_EElEC2B8ue170006ES8_, symObjAddr: 0x4D30, symBinAddr: 0x100005910, symSize: 0x20 }
  - { offsetInCU: 0x10D71, offset: 0x10D71, size: 0x8, addend: 0x0, symName: __ZNSt3__121__tree_const_iteratorINS_12__value_typeIiNS_15__list_iteratorIiPvEEEEPNS_11__tree_nodeIS5_S3_EElEC2B8ue170006ENS_15__tree_iteratorIS5_S8_lEE, symObjAddr: 0x4E80, symBinAddr: 0x100005A60, symSize: 0x20 }
  - { offsetInCU: 0x10DAA, offset: 0x10DAA, size: 0x8, addend: 0x0, symName: __ZNSt3__16vectorIiNS_9allocatorIiEEEC2Em, symObjAddr: 0x4EA0, symBinAddr: 0x100005A80, symSize: 0xE0 }
  - { offsetInCU: 0x10DFF, offset: 0x10DFF, size: 0x8, addend: 0x0, symName: __ZNSt3__117__compressed_pairIPiNS_9allocatorIiEEEC1B8ue170006IDnNS_18__default_init_tagEEEOT_OT0_, symObjAddr: 0x4F80, symBinAddr: 0x100005B60, symSize: 0x30 }
  - { offsetInCU: 0x10E57, offset: 0x10E57, size: 0x8, addend: 0x0, symName: __ZNSt3__16vectorIiNS_9allocatorIiEEE16__destroy_vectorC1B8ue170006ERS3_, symObjAddr: 0x4FF0, symBinAddr: 0x100005BD0, symSize: 0x30 }
  - { offsetInCU: 0x10E90, offset: 0x10E90, size: 0x8, addend: 0x0, symName: __ZNSt3__16vectorIiNS_9allocatorIiEEE11__vallocateB8ue170006Em, symObjAddr: 0x5020, symBinAddr: 0x100005C00, symSize: 0xA0 }
  - { offsetInCU: 0x10ED4, offset: 0x10ED4, size: 0x8, addend: 0x0, symName: __ZNSt3__16vectorIiNS_9allocatorIiEEE18__construct_at_endEm, symObjAddr: 0x50C0, symBinAddr: 0x100005CA0, symSize: 0xD0 }
  - { offsetInCU: 0x10F46, offset: 0x10F46, size: 0x8, addend: 0x0, symName: __ZNSt3__128__exception_guard_exceptionsINS_6vectorIiNS_9allocatorIiEEE16__destroy_vectorEE10__completeB8ue170006Ev, symObjAddr: 0x5190, symBinAddr: 0x100005D70, symSize: 0x20 }
  - { offsetInCU: 0x10F6C, offset: 0x10F6C, size: 0x8, addend: 0x0, symName: __ZNSt3__128__exception_guard_exceptionsINS_6vectorIiNS_9allocatorIiEEE16__destroy_vectorEED1B8ue170006Ev, symObjAddr: 0x51B0, symBinAddr: 0x100005D90, symSize: 0x20 }
  - { offsetInCU: 0x10F96, offset: 0x10F96, size: 0x8, addend: 0x0, symName: __ZNSt3__117__compressed_pairIPiNS_9allocatorIiEEEC2B8ue170006IDnNS_18__default_init_tagEEEOT_OT0_, symObjAddr: 0x51D0, symBinAddr: 0x100005DB0, symSize: 0x40 }
  - { offsetInCU: 0x10FEE, offset: 0x10FEE, size: 0x8, addend: 0x0, symName: __ZNSt3__122__compressed_pair_elemIPiLi0ELb0EEC2B8ue170006IDnvEEOT_, symObjAddr: 0x5210, symBinAddr: 0x100005DF0, symSize: 0x20 }
  - { offsetInCU: 0x11030, offset: 0x11030, size: 0x8, addend: 0x0, symName: __ZNSt3__122__compressed_pair_elemINS_9allocatorIiEELi1ELb1EEC2B8ue170006ENS_18__default_init_tagE, symObjAddr: 0x5230, symBinAddr: 0x100005E10, symSize: 0x20 }
  - { offsetInCU: 0x11065, offset: 0x11065, size: 0x8, addend: 0x0, symName: __ZNSt3__19allocatorIiEC2B8ue170006Ev, symObjAddr: 0x5250, symBinAddr: 0x100005E30, symSize: 0x20 }
  - { offsetInCU: 0x1108F, offset: 0x1108F, size: 0x8, addend: 0x0, symName: __ZNSt3__116__non_trivial_ifILb1ENS_9allocatorIiEEEC2B8ue170006Ev, symObjAddr: 0x5270, symBinAddr: 0x100005E50, symSize: 0x10 }
  - { offsetInCU: 0x110B9, offset: 0x110B9, size: 0x8, addend: 0x0, symName: __ZNSt3__128__exception_guard_exceptionsINS_6vectorIiNS_9allocatorIiEEE16__destroy_vectorEEC1B8ue170006ES5_, symObjAddr: 0x5280, symBinAddr: 0x100005E60, symSize: 0x30 }
  - { offsetInCU: 0x110F1, offset: 0x110F1, size: 0x8, addend: 0x0, symName: __ZNSt3__128__exception_guard_exceptionsINS_6vectorIiNS_9allocatorIiEEE16__destroy_vectorEEC2B8ue170006ES5_, symObjAddr: 0x52B0, symBinAddr: 0x100005E90, symSize: 0x20 }
  - { offsetInCU: 0x11129, offset: 0x11129, size: 0x8, addend: 0x0, symName: __ZNSt3__16vectorIiNS_9allocatorIiEEE16__destroy_vectorC2B8ue170006ERS3_, symObjAddr: 0x52D0, symBinAddr: 0x100005EB0, symSize: 0x20 }
  - { offsetInCU: 0x11162, offset: 0x11162, size: 0x8, addend: 0x0, symName: __ZNKSt3__16vectorIiNS_9allocatorIiEEE8max_sizeEv, symObjAddr: 0x52F0, symBinAddr: 0x100005ED0, symSize: 0x70 }
  - { offsetInCU: 0x1118A, offset: 0x1118A, size: 0x8, addend: 0x0, symName: __ZNKSt3__16vectorIiNS_9allocatorIiEEE20__throw_length_errorB8ue170006Ev, symObjAddr: 0x5360, symBinAddr: 0x100005F40, symSize: 0x20 }
  - { offsetInCU: 0x111B0, offset: 0x111B0, size: 0x8, addend: 0x0, symName: __ZNSt3__16vectorIiNS_9allocatorIiEEE7__allocB8ue170006Ev, symObjAddr: 0x53C0, symBinAddr: 0x100005FA0, symSize: 0x20 }
  - { offsetInCU: 0x111D6, offset: 0x111D6, size: 0x8, addend: 0x0, symName: __ZNSt3__16vectorIiNS_9allocatorIiEEE9__end_capB8ue170006Ev, symObjAddr: 0x53E0, symBinAddr: 0x100005FC0, symSize: 0x20 }
  - { offsetInCU: 0x111FC, offset: 0x111FC, size: 0x8, addend: 0x0, symName: __ZNKSt3__16vectorIiNS_9allocatorIiEEE14__annotate_newB8ue170006Em, symObjAddr: 0x5400, symBinAddr: 0x100005FE0, symSize: 0xB0 }
  - { offsetInCU: 0x1123B, offset: 0x1123B, size: 0x8, addend: 0x0, symName: __ZNSt3__116allocator_traitsINS_9allocatorIiEEE8max_sizeB8ue170006IS2_vEEmRKS2_, symObjAddr: 0x54E0, symBinAddr: 0x1000060C0, symSize: 0x20 }
  - { offsetInCU: 0x11269, offset: 0x11269, size: 0x8, addend: 0x0, symName: __ZNKSt3__16vectorIiNS_9allocatorIiEEE7__allocB8ue170006Ev, symObjAddr: 0x5500, symBinAddr: 0x1000060E0, symSize: 0x20 }
  - { offsetInCU: 0x1128F, offset: 0x1128F, size: 0x8, addend: 0x0, symName: __ZNSt3__114numeric_limitsIlE3maxB8ue170006Ev, symObjAddr: 0x5520, symBinAddr: 0x100006100, symSize: 0x10 }
  - { offsetInCU: 0x112AD, offset: 0x112AD, size: 0x8, addend: 0x0, symName: __ZNKSt3__16__lessIvvEclB8ue170006ImmEEbRKT_RKT0_, symObjAddr: 0x5580, symBinAddr: 0x100006160, symSize: 0x30 }
  - { offsetInCU: 0x11301, offset: 0x11301, size: 0x8, addend: 0x0, symName: __ZNKSt3__19allocatorIiE8max_sizeB8ue170006Ev, symObjAddr: 0x55B0, symBinAddr: 0x100006190, symSize: 0x20 }
  - { offsetInCU: 0x11327, offset: 0x11327, size: 0x8, addend: 0x0, symName: __ZNKSt3__117__compressed_pairIPiNS_9allocatorIiEEE6secondB8ue170006Ev, symObjAddr: 0x55D0, symBinAddr: 0x1000061B0, symSize: 0x20 }
  - { offsetInCU: 0x1134D, offset: 0x1134D, size: 0x8, addend: 0x0, symName: __ZNKSt3__122__compressed_pair_elemINS_9allocatorIiEELi1ELb1EE5__getB8ue170006Ev, symObjAddr: 0x55F0, symBinAddr: 0x1000061D0, symSize: 0x10 }
  - { offsetInCU: 0x11373, offset: 0x11373, size: 0x8, addend: 0x0, symName: __ZNSt3__123__libcpp_numeric_limitsIlLb1EE3maxB8ue170006Ev, symObjAddr: 0x5600, symBinAddr: 0x1000061E0, symSize: 0x10 }
  - { offsetInCU: 0x11387, offset: 0x11387, size: 0x8, addend: 0x0, symName: __ZNSt12length_errorC1B8ue170006EPKc, symObjAddr: 0x5680, symBinAddr: 0x100006260, symSize: 0x30 }
  - { offsetInCU: 0x113BF, offset: 0x113BF, size: 0x8, addend: 0x0, symName: __ZNSt12length_errorC2B8ue170006EPKc, symObjAddr: 0x56B0, symBinAddr: 0x100006290, symSize: 0x40 }
  - { offsetInCU: 0x113F7, offset: 0x113F7, size: 0x8, addend: 0x0, symName: __ZNSt3__19allocatorIiE8allocateB8ue170006Em, symObjAddr: 0x56F0, symBinAddr: 0x1000062D0, symSize: 0x80 }
  - { offsetInCU: 0x1142B, offset: 0x1142B, size: 0x8, addend: 0x0, symName: __ZNSt3__117__compressed_pairIPiNS_9allocatorIiEEE6secondB8ue170006Ev, symObjAddr: 0x5770, symBinAddr: 0x100006350, symSize: 0x20 }
  - { offsetInCU: 0x11451, offset: 0x11451, size: 0x8, addend: 0x0, symName: __ZNSt3__122__compressed_pair_elemINS_9allocatorIiEELi1ELb1EE5__getB8ue170006Ev, symObjAddr: 0x5790, symBinAddr: 0x100006370, symSize: 0x10 }
  - { offsetInCU: 0x11477, offset: 0x11477, size: 0x8, addend: 0x0, symName: __ZNSt3__117__compressed_pairIPiNS_9allocatorIiEEE5firstB8ue170006Ev, symObjAddr: 0x57A0, symBinAddr: 0x100006380, symSize: 0x20 }
  - { offsetInCU: 0x1149D, offset: 0x1149D, size: 0x8, addend: 0x0, symName: __ZNSt3__122__compressed_pair_elemIPiLi0ELb0EE5__getB8ue170006Ev, symObjAddr: 0x57C0, symBinAddr: 0x1000063A0, symSize: 0x10 }
  - { offsetInCU: 0x114C3, offset: 0x114C3, size: 0x8, addend: 0x0, symName: __ZNKSt3__16vectorIiNS_9allocatorIiEEE31__annotate_contiguous_containerB8ue170006EPKvS5_S5_S5_, symObjAddr: 0x57D0, symBinAddr: 0x1000063B0, symSize: 0x20 }
  - { offsetInCU: 0x11519, offset: 0x11519, size: 0x8, addend: 0x0, symName: __ZNKSt3__16vectorIiNS_9allocatorIiEEE4dataB8ue170006Ev, symObjAddr: 0x57F0, symBinAddr: 0x1000063D0, symSize: 0x20 }
  - { offsetInCU: 0x1153F, offset: 0x1153F, size: 0x8, addend: 0x0, symName: __ZNKSt3__16vectorIiNS_9allocatorIiEEE8capacityB8ue170006Ev, symObjAddr: 0x5810, symBinAddr: 0x1000063F0, symSize: 0x30 }
  - { offsetInCU: 0x11565, offset: 0x11565, size: 0x8, addend: 0x0, symName: __ZNKSt3__16vectorIiNS_9allocatorIiEEE9__end_capB8ue170006Ev, symObjAddr: 0x5850, symBinAddr: 0x100006430, symSize: 0x20 }
  - { offsetInCU: 0x1158B, offset: 0x1158B, size: 0x8, addend: 0x0, symName: __ZNKSt3__117__compressed_pairIPiNS_9allocatorIiEEE5firstB8ue170006Ev, symObjAddr: 0x5870, symBinAddr: 0x100006450, symSize: 0x20 }
  - { offsetInCU: 0x115B1, offset: 0x115B1, size: 0x8, addend: 0x0, symName: __ZNKSt3__122__compressed_pair_elemIPiLi0ELb0EE5__getB8ue170006Ev, symObjAddr: 0x5890, symBinAddr: 0x100006470, symSize: 0x10 }
  - { offsetInCU: 0x115F0, offset: 0x115F0, size: 0x8, addend: 0x0, symName: __ZNSt3__16vectorIiNS_9allocatorIiEEE21_ConstructTransactionC1B8ue170006ERS3_m, symObjAddr: 0x58A0, symBinAddr: 0x100006480, symSize: 0x30 }
  - { offsetInCU: 0x11638, offset: 0x11638, size: 0x8, addend: 0x0, symName: __ZNSt3__116allocator_traitsINS_9allocatorIiEEE9constructB8ue170006IiJEvEEvRS2_PT_DpOT0_, symObjAddr: 0x58D0, symBinAddr: 0x1000064B0, symSize: 0x30 }
  - { offsetInCU: 0x1167A, offset: 0x1167A, size: 0x8, addend: 0x0, symName: __ZNSt3__16vectorIiNS_9allocatorIiEEE21_ConstructTransactionD1B8ue170006Ev, symObjAddr: 0x5900, symBinAddr: 0x1000064E0, symSize: 0x20 }
  - { offsetInCU: 0x116A4, offset: 0x116A4, size: 0x8, addend: 0x0, symName: __ZNSt3__16vectorIiNS_9allocatorIiEEE21_ConstructTransactionC2B8ue170006ERS3_m, symObjAddr: 0x5920, symBinAddr: 0x100006500, symSize: 0x40 }
  - { offsetInCU: 0x116EC, offset: 0x116EC, size: 0x8, addend: 0x0, symName: __ZNSt3__19allocatorIiE9constructB8ue170006IiJEEEvPT_DpOT0_, symObjAddr: 0x5960, symBinAddr: 0x100006540, symSize: 0x20 }
  - { offsetInCU: 0x1172E, offset: 0x1172E, size: 0x8, addend: 0x0, symName: __ZNSt3__16vectorIiNS_9allocatorIiEEE21_ConstructTransactionD2B8ue170006Ev, symObjAddr: 0x5980, symBinAddr: 0x100006560, symSize: 0x20 }
  - { offsetInCU: 0x11758, offset: 0x11758, size: 0x8, addend: 0x0, symName: __ZNSt3__128__exception_guard_exceptionsINS_6vectorIiNS_9allocatorIiEEE16__destroy_vectorEED2B8ue170006Ev, symObjAddr: 0x59A0, symBinAddr: 0x100006580, symSize: 0x30 }
  - { offsetInCU: 0x11782, offset: 0x11782, size: 0x8, addend: 0x0, symName: __ZNSt3__16vectorIiNS_9allocatorIiEEE16__destroy_vectorclB8ue170006Ev, symObjAddr: 0x59D0, symBinAddr: 0x1000065B0, symSize: 0x80 }
  - { offsetInCU: 0x117A8, offset: 0x117A8, size: 0x8, addend: 0x0, symName: __ZNSt3__16vectorIiNS_9allocatorIiEEE7__clearB8ue170006Ev, symObjAddr: 0x5A50, symBinAddr: 0x100006630, symSize: 0x20 }
  - { offsetInCU: 0x117CE, offset: 0x117CE, size: 0x8, addend: 0x0, symName: __ZNKSt3__16vectorIiNS_9allocatorIiEEE17__annotate_deleteB8ue170006Ev, symObjAddr: 0x5A70, symBinAddr: 0x100006650, symSize: 0xB0 }
  - { offsetInCU: 0x117F4, offset: 0x117F4, size: 0x8, addend: 0x0, symName: __ZNSt3__116allocator_traitsINS_9allocatorIiEEE10deallocateB8ue170006ERS2_Pim, symObjAddr: 0x5B20, symBinAddr: 0x100006700, symSize: 0x30 }
  - { offsetInCU: 0x11836, offset: 0x11836, size: 0x8, addend: 0x0, symName: __ZNSt3__16vectorIiNS_9allocatorIiEEE22__base_destruct_at_endB8ue170006EPi, symObjAddr: 0x5B50, symBinAddr: 0x100006730, symSize: 0x90 }
  - { offsetInCU: 0x1187A, offset: 0x1187A, size: 0x8, addend: 0x0, symName: __ZNSt3__116allocator_traitsINS_9allocatorIiEEE7destroyB8ue170006IivEEvRS2_PT_, symObjAddr: 0x5BE0, symBinAddr: 0x1000067C0, symSize: 0x30 }
  - { offsetInCU: 0x118B7, offset: 0x118B7, size: 0x8, addend: 0x0, symName: __ZNSt3__19allocatorIiE7destroyB8ue170006EPi, symObjAddr: 0x5C10, symBinAddr: 0x1000067F0, symSize: 0x10 }
  - { offsetInCU: 0x118EB, offset: 0x118EB, size: 0x8, addend: 0x0, symName: __ZNKSt3__16vectorIiNS_9allocatorIiEEE4sizeB8ue170006Ev, symObjAddr: 0x5C20, symBinAddr: 0x100006800, symSize: 0x20 }
  - { offsetInCU: 0x11911, offset: 0x11911, size: 0x8, addend: 0x0, symName: __ZNSt3__19allocatorIiE10deallocateB8ue170006EPim, symObjAddr: 0x5C40, symBinAddr: 0x100006820, symSize: 0x70 }
  - { offsetInCU: 0x11953, offset: 0x11953, size: 0x8, addend: 0x0, symName: __ZNSt3__16vectorIiNS_9allocatorIiEEED2B8ue170006Ev, symObjAddr: 0x5CB0, symBinAddr: 0x100006890, symSize: 0x28 }
...
