---
triple:          'x86_64-apple-darwin'
binary-path:     '/Applications/Operating_System_Algorithms_and_Implementation/week7/output/FIFO'
relocations:
  - { offsetInCU: 0x650A, offset: 0x650A, size: 0x8, addend: 0x0, symName: __ZNSt3__124__put_character_sequenceB8ue170006IcNS_11char_traitsIcEEEERNS_13basic_ostreamIT_T0_EES7_PKS4_m, symObjAddr: 0x3F80, symBinAddr: 0x100004BD0, symSize: 0x1F0 }
  - { offsetInCU: 0xB10F, offset: 0xB10F, size: 0x8, addend: 0x0, symName: __ZNSt3__1neB8ue170006IPiEEbRKNS_11__wrap_iterIT_EES6_, symObjAddr: 0x280, symBinAddr: 0x100000ED0, symSize: 0x30 }
  - { offsetInCU: 0xB152, offset: 0xB152, size: 0x8, addend: 0x0, symName: __ZNSt3__1lsB8ue170006INS_11char_traitsIcEEEERNS_13basic_ostreamIcT_EES6_PKc, symObjAddr: 0x2D0, symBinAddr: 0x100000F20, symSize: 0x40 }
  - { offsetInCU: 0xB815, offset: 0xB815, size: 0x8, addend: 0x0, symName: __ZNSt3__1neB8ue170006ERKNS_21__hash_const_iteratorIPNS_11__hash_nodeIiPvEEEES7_, symObjAddr: 0x800, symBinAddr: 0x100001450, symSize: 0x30 }
  - { offsetInCU: 0xB852, offset: 0xB852, size: 0x8, addend: 0x0, symName: __ZNSt3__1neB8ue170006ERKNS_16__deque_iteratorIiPiRiPS1_lLl1024EEES6_, symObjAddr: 0x10B0, symBinAddr: 0x100001D00, symSize: 0x30 }
  - { offsetInCU: 0xB88F, offset: 0xB88F, size: 0x8, addend: 0x0, symName: __ZNSt3__1eqB8ue170006ERKNS_16__deque_iteratorIiPiRiPS1_lLl1024EEES6_, symObjAddr: 0x13B0, symBinAddr: 0x100002000, symSize: 0x30 }
  - { offsetInCU: 0xB8CC, offset: 0xB8CC, size: 0x8, addend: 0x0, symName: __ZNSt3__112__to_addressB8ue170006IiEEPT_S2_, symObjAddr: 0x1A20, symBinAddr: 0x100002670, symSize: 0x10 }
  - { offsetInCU: 0xB901, offset: 0xB901, size: 0x8, addend: 0x0, symName: __ZNSt3__130__libcpp_is_constant_evaluatedB8ue170006Ev, symObjAddr: 0x1BC0, symBinAddr: 0x100002810, symSize: 0x10 }
  - { offsetInCU: 0xB91E, offset: 0xB91E, size: 0x8, addend: 0x0, symName: __ZNSt3__119__libcpp_deallocateB8ue170006EPvmm, symObjAddr: 0x1BD0, symBinAddr: 0x100002820, symSize: 0x30 }
  - { offsetInCU: 0xB966, offset: 0xB966, size: 0x8, addend: 0x0, symName: __ZNSt3__127__do_deallocate_handle_sizeB8ue170006IJEEEvPvmDpT_, symObjAddr: 0x1C00, symBinAddr: 0x100002850, symSize: 0x20 }
  - { offsetInCU: 0xB9A4, offset: 0xB9A4, size: 0x8, addend: 0x0, symName: __ZNSt3__124__libcpp_operator_deleteB8ue170006IJPvEEEvDpT_, symObjAddr: 0x1C20, symBinAddr: 0x100002870, symSize: 0x20 }
  - { offsetInCU: 0xB9D9, offset: 0xB9D9, size: 0x8, addend: 0x0, symName: __ZNSt3__112__to_addressB8ue170006IPiEEPT_S3_, symObjAddr: 0x1E50, symBinAddr: 0x100002AA0, symSize: 0x10 }
  - { offsetInCU: 0xBA0E, offset: 0xBA0E, size: 0x8, addend: 0x0, symName: __ZNSt3__13maxB8ue170006ImEERKT_S3_S3_, symObjAddr: 0x29D0, symBinAddr: 0x100003620, symSize: 0x30 }
  - { offsetInCU: 0xBA51, offset: 0xBA51, size: 0x8, addend: 0x0, symName: __ZNSt3__13minB8ue170006ImEERKT_S3_S3_, symObjAddr: 0x2A00, symBinAddr: 0x100003650, symSize: 0x30 }
  - { offsetInCU: 0xBC95, offset: 0xBC95, size: 0x8, addend: 0x0, symName: __ZNSt3__13minB8ue170006ImNS_6__lessIvvEEEERKT_S5_S5_T0_, symObjAddr: 0x2A80, symBinAddr: 0x1000036D0, symSize: 0x50 }
  - { offsetInCU: 0xBD34, offset: 0xBD34, size: 0x8, addend: 0x0, symName: __ZNSt3__120__throw_length_errorB8ue170006EPKc, symObjAddr: 0x2B60, symBinAddr: 0x1000037B0, symSize: 0x70 }
  - { offsetInCU: 0xBD5E, offset: 0xBD5E, size: 0x8, addend: 0x0, symName: __ZNSt3__13maxB8ue170006ImNS_6__lessIvvEEEERKT_S5_S5_T0_, symObjAddr: 0x2C40, symBinAddr: 0x100003890, symSize: 0x50 }
  - { offsetInCU: 0xBDB8, offset: 0xBDB8, size: 0x8, addend: 0x0, symName: __ZNSt3__119__allocate_at_leastB8ue170006INS_9allocatorIiEEEENS_19__allocation_resultINS_16allocator_traitsIT_E7pointerEEERS5_m, symObjAddr: 0x2D90, symBinAddr: 0x1000039E0, symSize: 0x40 }
  - { offsetInCU: 0xBDFB, offset: 0xBDFB, size: 0x8, addend: 0x0, symName: __ZNSt3__117__libcpp_allocateB8ue170006Emm, symObjAddr: 0x2F30, symBinAddr: 0x100003B80, symSize: 0x20 }
  - { offsetInCU: 0xBE38, offset: 0xBE38, size: 0x8, addend: 0x0, symName: __ZNSt3__121__libcpp_operator_newB8ue170006IJmEEEPvDpT_, symObjAddr: 0x2F50, symBinAddr: 0x100003BA0, symSize: 0x20 }
  - { offsetInCU: 0xBE71, offset: 0xBE71, size: 0x8, addend: 0x0, symName: __ZNSt3__142__uninitialized_allocator_move_if_noexceptB8ue170006INS_9allocatorIiEENS_16reverse_iteratorIPiEES5_ivEET1_RT_T0_S9_S6_, symObjAddr: 0x2FD0, symBinAddr: 0x100003C20, symSize: 0x120 }
  - { offsetInCU: 0xBEED, offset: 0xBEED, size: 0x8, addend: 0x0, symName: __ZNSt3__14swapB8ue170006IPiEEvRT_S3_, symObjAddr: 0x3140, symBinAddr: 0x100003D90, symSize: 0x40 }
  - { offsetInCU: 0xBF3E, offset: 0xBF3E, size: 0x8, addend: 0x0, symName: __ZNSt3__1neB8ue170006IPiS1_EEbRKNS_16reverse_iteratorIT_EERKNS2_IT0_EE, symObjAddr: 0x3230, symBinAddr: 0x100003E80, symSize: 0x40 }
  - { offsetInCU: 0xBFAF, offset: 0xBFAF, size: 0x8, addend: 0x0, symName: __ZNSt3__114__construct_atB8ue170006IiJiEPiEEPT_S3_DpOT0_, symObjAddr: 0x3270, symBinAddr: 0x100003EC0, symSize: 0x30 }
  - { offsetInCU: 0xC01F, offset: 0xC01F, size: 0x8, addend: 0x0, symName: __ZNSt3__112__to_addressB8ue170006INS_16reverse_iteratorIPiEEvEEu7__decayIDTclsr19__to_address_helperIT_EE6__callclsr3stdE7declvalIRKS4_EEEEES6_, symObjAddr: 0x32A0, symBinAddr: 0x100003EF0, symSize: 0x20 }
  - { offsetInCU: 0xC055, offset: 0xC055, size: 0x8, addend: 0x0, symName: __ZNSt3__14moveB8ue170006INS_16reverse_iteratorIPiEES3_EET0_T_S5_S4_, symObjAddr: 0x3310, symBinAddr: 0x100003F60, symSize: 0x80 }
  - { offsetInCU: 0xC0D8, offset: 0xC0D8, size: 0x8, addend: 0x0, symName: __ZNSt3__16__moveB8ue170006INS_17_ClassicAlgPolicyENS_16reverse_iteratorIPiEES4_S4_EENS_4pairIT0_T2_EES6_T1_S7_, symObjAddr: 0x3400, symBinAddr: 0x100004050, symSize: 0x90 }
  - { offsetInCU: 0xC144, offset: 0xC144, size: 0x8, addend: 0x0, symName: __ZNSt3__123__dispatch_copy_or_moveB8ue170006INS_17_ClassicAlgPolicyENS_11__move_loopIS1_EENS_14__move_trivialENS_16reverse_iteratorIPiEES7_S7_EENS_4pairIT2_T4_EES9_T3_SA_, symObjAddr: 0x3490, symBinAddr: 0x1000040E0, symSize: 0x90 }
  - { offsetInCU: 0xC1C2, offset: 0xC1C2, size: 0x8, addend: 0x0, symName: __ZNSt3__121__unwrap_and_dispatchB8ue170006INS_10__overloadINS_11__move_loopINS_17_ClassicAlgPolicyEEENS_14__move_trivialEEENS_16reverse_iteratorIPiEES9_S9_Li0EEENS_4pairIT0_T2_EESB_T1_SC_, symObjAddr: 0x3520, symBinAddr: 0x100004170, symSize: 0x210 }
  - { offsetInCU: 0xC251, offset: 0xC251, size: 0x8, addend: 0x0, symName: __ZNSt3__114__unwrap_rangeB8ue170006INS_16reverse_iteratorIPiEES3_EENS_4pairIT0_S5_EET_S7_, symObjAddr: 0x3730, symBinAddr: 0x100004380, symSize: 0x90 }
  - { offsetInCU: 0xC3A5, offset: 0xC3A5, size: 0x8, addend: 0x0, symName: __ZNSt3__113__unwrap_iterB8ue170006INS_16reverse_iteratorIPiEENS_18__unwrap_iter_implIS3_Lb0EEELi0EEEDTclsrT0_8__unwrapclsr3stdE7declvalIT_EEEES7_, symObjAddr: 0x3860, symBinAddr: 0x1000044B0, symSize: 0x40 }
  - { offsetInCU: 0xC3E9, offset: 0xC3E9, size: 0x8, addend: 0x0, symName: __ZNSt3__19make_pairB8ue170006INS_16reverse_iteratorIPiEES3_EENS_4pairINS_18__unwrap_ref_decayIT_E4typeENS5_IT0_E4typeEEEOS6_OS9_, symObjAddr: 0x38A0, symBinAddr: 0x1000044F0, symSize: 0x30 }
  - { offsetInCU: 0xC438, offset: 0xC438, size: 0x8, addend: 0x0, symName: __ZNSt3__114__rewrap_rangeB8ue170006INS_16reverse_iteratorIPiEES3_EET_S4_T0_, symObjAddr: 0x38D0, symBinAddr: 0x100004520, symSize: 0x60 }
  - { offsetInCU: 0xC484, offset: 0xC484, size: 0x8, addend: 0x0, symName: __ZNSt3__113__rewrap_iterB8ue170006INS_16reverse_iteratorIPiEES3_NS_18__unwrap_iter_implIS3_Lb0EEEEET_S6_T0_, symObjAddr: 0x3930, symBinAddr: 0x100004580, symSize: 0x80 }
  - { offsetInCU: 0xC58B, offset: 0xC58B, size: 0x8, addend: 0x0, symName: __ZNSt3__1eqB8ue170006IPiEEbRKNS_11__wrap_iterIT_EES6_, symObjAddr: 0x3F20, symBinAddr: 0x100004B70, symSize: 0x40 }
  - { offsetInCU: 0xC5CE, offset: 0xC5CE, size: 0x8, addend: 0x0, symName: __ZNSt3__116__pad_and_outputB8ue170006IcNS_11char_traitsIcEEEENS_19ostreambuf_iteratorIT_T0_EES6_PKS4_S8_S8_RNS_8ios_baseES4_, symObjAddr: 0x41D0, symBinAddr: 0x100004E20, symSize: 0x220 }
  - { offsetInCU: 0xC69E, offset: 0xC69E, size: 0x8, addend: 0x0, symName: __ZNSt3__112__to_addressB8ue170006IKcEEPT_S3_, symObjAddr: 0x46F0, symBinAddr: 0x100005340, symSize: 0x10 }
  - { offsetInCU: 0xC706, offset: 0xC706, size: 0x8, addend: 0x0, symName: __ZNSt3__19use_facetB8ue170006INS_5ctypeIcEEEERKT_RKNS_6localeE, symObjAddr: 0x49A0, symBinAddr: 0x1000055F0, symSize: 0x30 }
  - { offsetInCU: 0xCBD3, offset: 0xCBD3, size: 0x8, addend: 0x0, symName: __ZNSt3__118__constexpr_strlenB8ue170006EPKc, symObjAddr: 0x4A30, symBinAddr: 0x100005680, symSize: 0x20 }
  - { offsetInCU: 0xCC32, offset: 0xCC32, size: 0x8, addend: 0x0, symName: __ZNSt3__116__constrain_hashB8ue170006Emm, symObjAddr: 0x5980, symBinAddr: 0x1000065D0, symSize: 0x80 }
  - { offsetInCU: 0xCC6C, offset: 0xCC6C, size: 0x8, addend: 0x0, symName: __ZNSt3__1eqB8ue170006ERKNS_21__hash_const_iteratorIPNS_11__hash_nodeIiPvEEEES7_, symObjAddr: 0x5C60, symBinAddr: 0x1000068B0, symSize: 0x30 }
  - { offsetInCU: 0xCCC5, offset: 0xCCC5, size: 0x8, addend: 0x0, symName: __ZNSt3__18distanceB8ue170006INS_16__deque_iteratorIiPKiRS2_PKS3_lLl1024EEEEENS_15iterator_traitsIT_E15difference_typeES9_S9_, symObjAddr: 0x6490, symBinAddr: 0x1000070E0, symSize: 0x60 }
  - { offsetInCU: 0xCD08, offset: 0xCD08, size: 0x8, addend: 0x0, symName: __ZNSt3__1neB8ue170006ERKNS_5dequeIiNS_9allocatorIiEEE13__deque_rangeES6_, symObjAddr: 0x6D60, symBinAddr: 0x1000079B0, symSize: 0x30 }
  - { offsetInCU: 0xCD45, offset: 0xCD45, size: 0x8, addend: 0x0, symName: __ZNSt3__14swapB8ue170006IPPiEEvRT_S4_, symObjAddr: 0x8080, symBinAddr: 0x100008CD0, symSize: 0x40 }
  - { offsetInCU: 0xCD96, offset: 0xCD96, size: 0x8, addend: 0x0, symName: __ZNSt3__14moveB8ue170006IPPiS2_EET0_T_S4_S3_, symObjAddr: 0x8120, symBinAddr: 0x100008D70, symSize: 0x40 }
  - { offsetInCU: 0xCDF0, offset: 0xCDF0, size: 0x8, addend: 0x0, symName: __ZNSt3__16__moveB8ue170006INS_17_ClassicAlgPolicyEPPiS3_S3_EENS_4pairIT0_T2_EES5_T1_S6_, symObjAddr: 0x8220, symBinAddr: 0x100008E70, symSize: 0x40 }
  - { offsetInCU: 0xCE5C, offset: 0xCE5C, size: 0x8, addend: 0x0, symName: __ZNSt3__123__dispatch_copy_or_moveB8ue170006INS_17_ClassicAlgPolicyENS_11__move_loopIS1_EENS_14__move_trivialEPPiS6_S6_EENS_4pairIT2_T4_EES8_T3_S9_, symObjAddr: 0x8260, symBinAddr: 0x100008EB0, symSize: 0x40 }
  - { offsetInCU: 0xCEDA, offset: 0xCEDA, size: 0x8, addend: 0x0, symName: __ZNSt3__121__unwrap_and_dispatchB8ue170006INS_10__overloadINS_11__move_loopINS_17_ClassicAlgPolicyEEENS_14__move_trivialEEEPPiS8_S8_Li0EEENS_4pairIT0_T2_EESA_T1_SB_, symObjAddr: 0x82A0, symBinAddr: 0x100008EF0, symSize: 0xB0 }
  - { offsetInCU: 0xCF69, offset: 0xCF69, size: 0x8, addend: 0x0, symName: __ZNSt3__114__unwrap_rangeB8ue170006IPPiS2_EENS_4pairIT0_S4_EET_S6_, symObjAddr: 0x8350, symBinAddr: 0x100008FA0, symSize: 0x50 }
  - { offsetInCU: 0xD0A8, offset: 0xD0A8, size: 0x8, addend: 0x0, symName: __ZNSt3__113__unwrap_iterB8ue170006IPPiNS_18__unwrap_iter_implIS2_Lb1EEELi0EEEDTclsrT0_8__unwrapclsr3stdE7declvalIT_EEEES6_, symObjAddr: 0x83E0, symBinAddr: 0x100009030, symSize: 0x20 }
  - { offsetInCU: 0xD0EC, offset: 0xD0EC, size: 0x8, addend: 0x0, symName: __ZNSt3__19make_pairB8ue170006IPPiS2_EENS_4pairINS_18__unwrap_ref_decayIT_E4typeENS4_IT0_E4typeEEEOS5_OS8_, symObjAddr: 0x8400, symBinAddr: 0x100009050, symSize: 0x30 }
  - { offsetInCU: 0xD13B, offset: 0xD13B, size: 0x8, addend: 0x0, symName: __ZNSt3__114__rewrap_rangeB8ue170006IPPiS2_EET_S3_T0_, symObjAddr: 0x8430, symBinAddr: 0x100009080, symSize: 0x30 }
  - { offsetInCU: 0xD187, offset: 0xD187, size: 0x8, addend: 0x0, symName: __ZNSt3__113__rewrap_iterB8ue170006IPPiS2_NS_18__unwrap_iter_implIS2_Lb1EEEEET_S5_T0_, symObjAddr: 0x8460, symBinAddr: 0x1000090B0, symSize: 0x50 }
  - { offsetInCU: 0xD1DC, offset: 0xD1DC, size: 0x8, addend: 0x0, symName: __ZNSt3__119__copy_trivial_implB8ue170006IPiS1_EENS_4pairIPT_PT0_EES4_S4_S6_, symObjAddr: 0x84B0, symBinAddr: 0x100009100, symSize: 0x70 }
  - { offsetInCU: 0xD244, offset: 0xD244, size: 0x8, addend: 0x0, symName: __ZNSt3__119__constexpr_memmoveB8ue170006IPiS1_Li0EEEPT_S3_PT0_NS_15__element_countE, symObjAddr: 0x8520, symBinAddr: 0x100009170, symSize: 0x90 }
  - { offsetInCU: 0xD2B2, offset: 0xD2B2, size: 0x8, addend: 0x0, symName: __ZNSt3__19make_pairB8ue170006IRPPiS2_EENS_4pairINS_18__unwrap_ref_decayIT_E4typeENS5_IT0_E4typeEEEOS6_OS9_, symObjAddr: 0x85B0, symBinAddr: 0x100009200, symSize: 0x30 }
  - { offsetInCU: 0xD354, offset: 0xD354, size: 0x8, addend: 0x0, symName: __ZNSt3__18distanceB8ue170006INS_13move_iteratorIPPiEEEENS_15iterator_traitsIT_E15difference_typeES6_S6_, symObjAddr: 0x8790, symBinAddr: 0x1000093E0, symSize: 0x40 }
  - { offsetInCU: 0xD397, offset: 0xD397, size: 0x8, addend: 0x0, symName: __ZNSt3__110__distanceB8ue170006INS_13move_iteratorIPPiEEEENS_15iterator_traitsIT_E15difference_typeES6_S6_NS_26random_access_iterator_tagE, symObjAddr: 0x8970, symBinAddr: 0x1000095C0, symSize: 0x30 }
  - { offsetInCU: 0xD3E4, offset: 0xD3E4, size: 0x8, addend: 0x0, symName: __ZNSt3__1miB8ue170006IPPiS2_EENS_13move_iteratorIT_E15difference_typeERKS5_RKNS3_IT0_EE, symObjAddr: 0x89A0, symBinAddr: 0x1000095F0, symSize: 0x40 }
  - { offsetInCU: 0xD433, offset: 0xD433, size: 0x8, addend: 0x0, symName: __ZNSt3__113move_backwardB8ue170006IPPiS2_EET0_T_S4_S3_, symObjAddr: 0x8A40, symBinAddr: 0x100009690, symSize: 0x40 }
  - { offsetInCU: 0xD48D, offset: 0xD48D, size: 0x8, addend: 0x0, symName: __ZNSt3__115__move_backwardB8ue170006INS_17_ClassicAlgPolicyEPPiS3_S3_EENS_4pairIT0_T2_EES5_T1_S6_, symObjAddr: 0x8A80, symBinAddr: 0x1000096D0, symSize: 0x40 }
  - { offsetInCU: 0xD4F9, offset: 0xD4F9, size: 0x8, addend: 0x0, symName: __ZNSt3__123__dispatch_copy_or_moveB8ue170006INS_17_ClassicAlgPolicyENS_20__move_backward_loopIS1_EENS_23__move_backward_trivialEPPiS6_S6_EENS_4pairIT2_T4_EES8_T3_S9_, symObjAddr: 0x8AC0, symBinAddr: 0x100009710, symSize: 0x40 }
  - { offsetInCU: 0xD577, offset: 0xD577, size: 0x8, addend: 0x0, symName: __ZNSt3__121__unwrap_and_dispatchB8ue170006INS_10__overloadINS_20__move_backward_loopINS_17_ClassicAlgPolicyEEENS_23__move_backward_trivialEEEPPiS8_S8_Li0EEENS_4pairIT0_T2_EESA_T1_SB_, symObjAddr: 0x8B00, symBinAddr: 0x100009750, symSize: 0xB0 }
  - { offsetInCU: 0xD64C, offset: 0xD64C, size: 0x8, addend: 0x0, symName: __ZNSt3__128__copy_backward_trivial_implB8ue170006IPiS1_EENS_4pairIPT_PT0_EES4_S4_S6_, symObjAddr: 0x8BF0, symBinAddr: 0x100009840, symSize: 0x70 }
  - { offsetInCU: 0xD6B4, offset: 0xD6B4, size: 0x8, addend: 0x0, symName: __ZNSt3__19make_pairB8ue170006IRPPiS3_EENS_4pairINS_18__unwrap_ref_decayIT_E4typeENS5_IT0_E4typeEEEOS6_OS9_, symObjAddr: 0x8C60, symBinAddr: 0x1000098B0, symSize: 0x30 }
  - { offsetInCU: 0xD703, offset: 0xD703, size: 0x8, addend: 0x0, symName: __ZNSt3__119__allocate_at_leastB8ue170006INS_9allocatorIPiEEEENS_19__allocation_resultINS_16allocator_traitsIT_E7pointerEEERS6_m, symObjAddr: 0x8D90, symBinAddr: 0x1000099E0, symSize: 0x40 }
  - { offsetInCU: 0xD746, offset: 0xD746, size: 0x8, addend: 0x0, symName: __ZNSt3__1eqB8ue170006ERKNS_5dequeIiNS_9allocatorIiEEE13__deque_rangeES6_, symObjAddr: 0x9220, symBinAddr: 0x100009E70, symSize: 0x30 }
  - { offsetInCU: 0xD783, offset: 0xD783, size: 0x8, addend: 0x0, symName: __ZNSt3__110__distanceB8ue170006INS_16__deque_iteratorIiPKiRS2_PKS3_lLl1024EEEEENS_15iterator_traitsIT_E15difference_typeES9_S9_NS_26random_access_iterator_tagE, symObjAddr: 0x9330, symBinAddr: 0x100009F80, symSize: 0x30 }
  - { offsetInCU: 0xD7D0, offset: 0xD7D0, size: 0x8, addend: 0x0, symName: __ZNSt3__1miB8ue170006ERKNS_16__deque_iteratorIiPKiRS1_PKS2_lLl1024EEES8_, symObjAddr: 0x9360, symBinAddr: 0x100009FB0, symSize: 0xA0 }
  - { offsetInCU: 0xD80D, offset: 0xD80D, size: 0x8, addend: 0x0, symName: __ZNSt3__1neB8ue170006ERKNS_16__deque_iteratorIiPKiRS1_PKS2_lLl1024EEES8_, symObjAddr: 0x9400, symBinAddr: 0x10000A050, symSize: 0x30 }
  - { offsetInCU: 0xD84A, offset: 0xD84A, size: 0x8, addend: 0x0, symName: __ZNSt3__1eqB8ue170006ERKNS_16__deque_iteratorIiPKiRS1_PKS2_lLl1024EEES8_, symObjAddr: 0x9430, symBinAddr: 0x10000A080, symSize: 0x30 }
  - { offsetInCU: 0xDC5C, offset: 0xDC5C, size: 0x8, addend: 0x0, symName: __ZNSt3__116__is_hash_power2B8ue170006Em, symObjAddr: 0xA490, symBinAddr: 0x10000B0E0, symSize: 0x40 }
  - { offsetInCU: 0xDCA6, offset: 0xDCA6, size: 0x8, addend: 0x0, symName: __ZNSt3__116__next_hash_pow2B8ue170006Em, symObjAddr: 0xADF0, symBinAddr: 0x10000BA40, symSize: 0x60 }
  - { offsetInCU: 0xDCD2, offset: 0xDCD2, size: 0x8, addend: 0x0, symName: __ZNSt3__112__libcpp_clzB8ue170006Em, symObjAddr: 0xAFD0, symBinAddr: 0x10000BC20, symSize: 0x20 }
  - { offsetInCU: 0xDCFE, offset: 0xDCFE, size: 0x8, addend: 0x0, symName: __ZNSt3__1eqB8ue170006ERKNS_15__hash_iteratorIPNS_11__hash_nodeIiPvEEEES7_, symObjAddr: 0xB250, symBinAddr: 0x10000BEA0, symSize: 0x30 }
  - { offsetInCU: 0xDD3B, offset: 0xDD3B, size: 0x8, addend: 0x0, symName: __ZNSt3__122__make_exception_guardB8ue170006INS_6vectorIiNS_9allocatorIiEEE16__destroy_vectorEEENS_28__exception_guard_exceptionsIT_EES7_, symObjAddr: 0xB5E0, symBinAddr: 0x10000C230, symSize: 0x40 }
  - { offsetInCU: 0xE015, offset: 0xE015, size: 0x8, addend: 0x0, symName: __ZSt28__throw_bad_array_new_lengthB8ue170006v, symObjAddr: 0x2EF0, symBinAddr: 0x100003B40, symSize: 0x40 }
  - { offsetInCU: 0xE642, offset: 0xE642, size: 0x8, addend: 0x0, symName: __ZNSt3__16vectorIiNS_9allocatorIiEEE26__swap_out_circular_bufferERNS_14__split_bufferIiRS2_EE, symObjAddr: 0x2800, symBinAddr: 0x100003450, symSize: 0x120 }
  - { offsetInCU: 0x10FE9, offset: 0x10FE9, size: 0x8, addend: 0x0, symName: __Z10printQueueNSt3__15queueIiNS_5dequeIiNS_9allocatorIiEEEEEE, symObjAddr: 0x0, symBinAddr: 0x100000C50, symSize: 0x140 }
  - { offsetInCU: 0x11076, offset: 0x11076, size: 0x8, addend: 0x0, symName: __ZNSt3__16vectorIiNS_9allocatorIiEEEC1B8ue170006Ev, symObjAddr: 0x140, symBinAddr: 0x100000D90, symSize: 0x20 }
  - { offsetInCU: 0x110CD, offset: 0x110CD, size: 0x8, addend: 0x0, symName: __ZNKSt3__15queueIiNS_5dequeIiNS_9allocatorIiEEEEE5emptyB8ue170006Ev, symObjAddr: 0x160, symBinAddr: 0x100000DB0, symSize: 0x20 }
  - { offsetInCU: 0x110F3, offset: 0x110F3, size: 0x8, addend: 0x0, symName: __ZNSt3__16vectorIiNS_9allocatorIiEEE9push_backB8ue170006ERKi, symObjAddr: 0x180, symBinAddr: 0x100000DD0, symSize: 0x60 }
  - { offsetInCU: 0x1112A, offset: 0x1112A, size: 0x8, addend: 0x0, symName: __ZNSt3__15queueIiNS_5dequeIiNS_9allocatorIiEEEEE5frontB8ue170006Ev, symObjAddr: 0x1E0, symBinAddr: 0x100000E30, symSize: 0x20 }
  - { offsetInCU: 0x11150, offset: 0x11150, size: 0x8, addend: 0x0, symName: __ZNSt3__15queueIiNS_5dequeIiNS_9allocatorIiEEEEE3popB8ue170006Ev, symObjAddr: 0x200, symBinAddr: 0x100000E50, symSize: 0x20 }
  - { offsetInCU: 0x11176, offset: 0x11176, size: 0x8, addend: 0x0, symName: __ZNSt3__16vectorIiNS_9allocatorIiEEE5beginB8ue170006Ev, symObjAddr: 0x220, symBinAddr: 0x100000E70, symSize: 0x30 }
  - { offsetInCU: 0x1119E, offset: 0x1119E, size: 0x8, addend: 0x0, symName: __ZNSt3__16vectorIiNS_9allocatorIiEEE3endB8ue170006Ev, symObjAddr: 0x250, symBinAddr: 0x100000EA0, symSize: 0x30 }
  - { offsetInCU: 0x111C6, offset: 0x111C6, size: 0x8, addend: 0x0, symName: __ZNKSt3__111__wrap_iterIPiEdeB8ue170006Ev, symObjAddr: 0x2B0, symBinAddr: 0x100000F00, symSize: 0x20 }
  - { offsetInCU: 0x111EC, offset: 0x111EC, size: 0x8, addend: 0x0, symName: __ZNSt3__111__wrap_iterIPiEppB8ue170006Ev, symObjAddr: 0x310, symBinAddr: 0x100000F60, symSize: 0x20 }
  - { offsetInCU: 0x11212, offset: 0x11212, size: 0x8, addend: 0x0, symName: __ZNSt3__16vectorIiNS_9allocatorIiEEED1B8ue170006Ev, symObjAddr: 0x330, symBinAddr: 0x100000F80, symSize: 0x20 }
  - { offsetInCU: 0x1123C, offset: 0x1123C, size: 0x8, addend: 0x0, symName: __Z19fifoPageReplacementRNSt3__16vectorIiNS_9allocatorIiEEEEii, symObjAddr: 0x360, symBinAddr: 0x100000FB0, symSize: 0x440 }
  - { offsetInCU: 0x11304, offset: 0x11304, size: 0x8, addend: 0x0, symName: __ZNSt3__15queueIiNS_5dequeIiNS_9allocatorIiEEEEEC1B8ue170006Ev, symObjAddr: 0x7A0, symBinAddr: 0x1000013F0, symSize: 0x20 }
  - { offsetInCU: 0x11397, offset: 0x11397, size: 0x8, addend: 0x0, symName: __ZNSt3__113unordered_setIiNS_4hashIiEENS_8equal_toIiEENS_9allocatorIiEEEC1B8ue170006Ev, symObjAddr: 0x7C0, symBinAddr: 0x100001410, symSize: 0x20 }
  - { offsetInCU: 0x113C1, offset: 0x113C1, size: 0x8, addend: 0x0, symName: __ZNSt3__16vectorIiNS_9allocatorIiEEEixB8ue170006Em, symObjAddr: 0x7E0, symBinAddr: 0x100001430, symSize: 0x20 }
  - { offsetInCU: 0x113F8, offset: 0x113F8, size: 0x8, addend: 0x0, symName: __ZNSt3__113unordered_setIiNS_4hashIiEENS_8equal_toIiEENS_9allocatorIiEEE4findB8ue170006ERKi, symObjAddr: 0x830, symBinAddr: 0x100001480, symSize: 0x40 }
  - { offsetInCU: 0x1142D, offset: 0x1142D, size: 0x8, addend: 0x0, symName: __ZNSt3__113unordered_setIiNS_4hashIiEENS_8equal_toIiEENS_9allocatorIiEEE3endB8ue170006Ev, symObjAddr: 0x870, symBinAddr: 0x1000014C0, symSize: 0x30 }
  - { offsetInCU: 0x11453, offset: 0x11453, size: 0x8, addend: 0x0, symName: __ZNSt3__15queueIiNS_5dequeIiNS_9allocatorIiEEEEEC1B8ue170006ERKS5_, symObjAddr: 0x8A0, symBinAddr: 0x1000014F0, symSize: 0x30 }
  - { offsetInCU: 0x1148C, offset: 0x1148C, size: 0x8, addend: 0x0, symName: __ZNSt3__15queueIiNS_5dequeIiNS_9allocatorIiEEEEED1Ev, symObjAddr: 0x8D0, symBinAddr: 0x100001520, symSize: 0x20 }
  - { offsetInCU: 0x114B9, offset: 0x114B9, size: 0x8, addend: 0x0, symName: __ZNKSt3__15queueIiNS_5dequeIiNS_9allocatorIiEEEEE4sizeB8ue170006Ev, symObjAddr: 0x8F0, symBinAddr: 0x100001540, symSize: 0x20 }
  - { offsetInCU: 0x114DF, offset: 0x114DF, size: 0x8, addend: 0x0, symName: __ZNSt3__15queueIiNS_5dequeIiNS_9allocatorIiEEEEE4pushB8ue170006ERKi, symObjAddr: 0x910, symBinAddr: 0x100001560, symSize: 0x30 }
  - { offsetInCU: 0x11514, offset: 0x11514, size: 0x8, addend: 0x0, symName: __ZNSt3__113unordered_setIiNS_4hashIiEENS_8equal_toIiEENS_9allocatorIiEEE6insertB8ue170006ERKi, symObjAddr: 0x940, symBinAddr: 0x100001590, symSize: 0x40 }
  - { offsetInCU: 0x11549, offset: 0x11549, size: 0x8, addend: 0x0, symName: __ZNSt3__113unordered_setIiNS_4hashIiEENS_8equal_toIiEENS_9allocatorIiEEE5eraseB8ue170006ERKi, symObjAddr: 0x980, symBinAddr: 0x1000015D0, symSize: 0x30 }
  - { offsetInCU: 0x1157E, offset: 0x1157E, size: 0x8, addend: 0x0, symName: __ZNSt3__113unordered_setIiNS_4hashIiEENS_8equal_toIiEENS_9allocatorIiEEED1B8ue170006Ev, symObjAddr: 0x9B0, symBinAddr: 0x100001600, symSize: 0x20 }
  - { offsetInCU: 0x115A8, offset: 0x115A8, size: 0x8, addend: 0x0, symName: _main, symObjAddr: 0x9D0, symBinAddr: 0x100001620, symSize: 0x130 }
  - { offsetInCU: 0x1160A, offset: 0x1160A, size: 0x8, addend: 0x0, symName: __ZNSt3__16vectorIiNS_9allocatorIiEEEC1Em, symObjAddr: 0xB00, symBinAddr: 0x100001750, symSize: 0x30 }
  - { offsetInCU: 0x11645, offset: 0x11645, size: 0x8, addend: 0x0, symName: __ZNSt3__15queueIiNS_5dequeIiNS_9allocatorIiEEEEED2Ev, symObjAddr: 0xB30, symBinAddr: 0x100001780, symSize: 0x20 }
  - { offsetInCU: 0x11672, offset: 0x11672, size: 0x8, addend: 0x0, symName: __ZNSt3__15dequeIiNS_9allocatorIiEEED1B8ue170006Ev, symObjAddr: 0xB50, symBinAddr: 0x1000017A0, symSize: 0x20 }
  - { offsetInCU: 0x1169C, offset: 0x1169C, size: 0x8, addend: 0x0, symName: __ZNSt3__15dequeIiNS_9allocatorIiEEED2B8ue170006Ev, symObjAddr: 0xB70, symBinAddr: 0x1000017C0, symSize: 0x90 }
  - { offsetInCU: 0x116F3, offset: 0x116F3, size: 0x8, addend: 0x0, symName: __ZNSt3__15dequeIiNS_9allocatorIiEEE5clearEv, symObjAddr: 0xC00, symBinAddr: 0x100001850, symSize: 0x1B0 }
  - { offsetInCU: 0x11757, offset: 0x11757, size: 0x8, addend: 0x0, symName: __ZNKSt3__15dequeIiNS_9allocatorIiEEE17__annotate_deleteB8ue170006Ev, symObjAddr: 0xDB0, symBinAddr: 0x100001A00, symSize: 0xE0 }
  - { offsetInCU: 0x1179B, offset: 0x1179B, size: 0x8, addend: 0x0, symName: __ZNSt3__114__split_bufferIPiNS_9allocatorIS1_EEE5beginB8ue170006Ev, symObjAddr: 0xE90, symBinAddr: 0x100001AE0, symSize: 0x20 }
  - { offsetInCU: 0x117C1, offset: 0x117C1, size: 0x8, addend: 0x0, symName: __ZNSt3__114__split_bufferIPiNS_9allocatorIS1_EEE3endB8ue170006Ev, symObjAddr: 0xEB0, symBinAddr: 0x100001B00, symSize: 0x20 }
  - { offsetInCU: 0x117E7, offset: 0x117E7, size: 0x8, addend: 0x0, symName: __ZNSt3__116allocator_traitsINS_9allocatorIiEEE10deallocateB8ue170006ERS2_Pim, symObjAddr: 0xED0, symBinAddr: 0x100001B20, symSize: 0x30 }
  - { offsetInCU: 0x11829, offset: 0x11829, size: 0x8, addend: 0x0, symName: __ZNSt3__15dequeIiNS_9allocatorIiEEE7__allocB8ue170006Ev, symObjAddr: 0xF00, symBinAddr: 0x100001B50, symSize: 0x20 }
  - { offsetInCU: 0x1184F, offset: 0x1184F, size: 0x8, addend: 0x0, symName: __ZNSt3__114__split_bufferIPiNS_9allocatorIS1_EEED1Ev, symObjAddr: 0xF20, symBinAddr: 0x100001B70, symSize: 0x20 }
  - { offsetInCU: 0x1187B, offset: 0x1187B, size: 0x8, addend: 0x0, symName: __ZNSt3__15dequeIiNS_9allocatorIiEEE5beginB8ue170006Ev, symObjAddr: 0xF40, symBinAddr: 0x100001B90, symSize: 0xC0 }
  - { offsetInCU: 0x118B0, offset: 0x118B0, size: 0x8, addend: 0x0, symName: __ZNSt3__15dequeIiNS_9allocatorIiEEE3endB8ue170006Ev, symObjAddr: 0x1000, symBinAddr: 0x100001C50, symSize: 0xB0 }
  - { offsetInCU: 0x118F4, offset: 0x118F4, size: 0x8, addend: 0x0, symName: __ZNSt3__116allocator_traitsINS_9allocatorIiEEE7destroyB8ue170006IivEEvRS2_PT_, symObjAddr: 0x10E0, symBinAddr: 0x100001D30, symSize: 0x30 }
  - { offsetInCU: 0x11931, offset: 0x11931, size: 0x8, addend: 0x0, symName: __ZNKSt3__116__deque_iteratorIiPiRiPS1_lLl1024EEdeB8ue170006Ev, symObjAddr: 0x1110, symBinAddr: 0x100001D60, symSize: 0x20 }
  - { offsetInCU: 0x11957, offset: 0x11957, size: 0x8, addend: 0x0, symName: __ZNSt3__116__deque_iteratorIiPiRiPS1_lLl1024EEppB8ue170006Ev, symObjAddr: 0x1130, symBinAddr: 0x100001D80, symSize: 0x60 }
  - { offsetInCU: 0x1197D, offset: 0x1197D, size: 0x8, addend: 0x0, symName: __ZNSt3__15dequeIiNS_9allocatorIiEEE6__sizeB8ue170006Ev, symObjAddr: 0x1190, symBinAddr: 0x100001DE0, symSize: 0x20 }
  - { offsetInCU: 0x119A3, offset: 0x119A3, size: 0x8, addend: 0x0, symName: __ZNKSt3__114__split_bufferIPiNS_9allocatorIS1_EEE4sizeB8ue170006Ev, symObjAddr: 0x11B0, symBinAddr: 0x100001E00, symSize: 0x20 }
  - { offsetInCU: 0x119C9, offset: 0x119C9, size: 0x8, addend: 0x0, symName: __ZNSt3__114__split_bufferIPiNS_9allocatorIS1_EEE5frontB8ue170006Ev, symObjAddr: 0x11D0, symBinAddr: 0x100001E20, symSize: 0x20 }
  - { offsetInCU: 0x119EF, offset: 0x119EF, size: 0x8, addend: 0x0, symName: __ZNSt3__114__split_bufferIPiNS_9allocatorIS1_EEE9pop_frontB8ue170006Ev, symObjAddr: 0x11F0, symBinAddr: 0x100001E40, symSize: 0x30 }
  - { offsetInCU: 0x11A15, offset: 0x11A15, size: 0x8, addend: 0x0, symName: __ZNKSt3__15dequeIiNS_9allocatorIiEEE14__annotate_newB8ue170006Em, symObjAddr: 0x1220, symBinAddr: 0x100001E70, symSize: 0xA0 }
  - { offsetInCU: 0x11A4A, offset: 0x11A4A, size: 0x8, addend: 0x0, symName: __ZNKSt3__114__split_bufferIPiNS_9allocatorIS1_EEE5emptyB8ue170006Ev, symObjAddr: 0x12C0, symBinAddr: 0x100001F10, symSize: 0x20 }
  - { offsetInCU: 0x11A70, offset: 0x11A70, size: 0x8, addend: 0x0, symName: __ZNSt3__116__deque_iteratorIiPiRiPS1_lLl1024EEC1B8ue170006ES3_S1_, symObjAddr: 0x12E0, symBinAddr: 0x100001F30, symSize: 0x30 }
  - { offsetInCU: 0x11AB8, offset: 0x11AB8, size: 0x8, addend: 0x0, symName: __ZNSt3__116__deque_iteratorIiPiRiPS1_lLl1024EEC2B8ue170006ES3_S1_, symObjAddr: 0x1310, symBinAddr: 0x100001F60, symSize: 0x30 }
  - { offsetInCU: 0x11B00, offset: 0x11B00, size: 0x8, addend: 0x0, symName: __ZNKSt3__15dequeIiNS_9allocatorIiEEE4sizeB8ue170006Ev, symObjAddr: 0x1340, symBinAddr: 0x100001F90, symSize: 0x20 }
  - { offsetInCU: 0x11B26, offset: 0x11B26, size: 0x8, addend: 0x0, symName: __ZNKSt3__15dequeIiNS_9allocatorIiEEE6__sizeB8ue170006Ev, symObjAddr: 0x1360, symBinAddr: 0x100001FB0, symSize: 0x20 }
  - { offsetInCU: 0x11B4C, offset: 0x11B4C, size: 0x8, addend: 0x0, symName: __ZNKSt3__117__compressed_pairImNS_9allocatorIiEEE5firstB8ue170006Ev, symObjAddr: 0x1380, symBinAddr: 0x100001FD0, symSize: 0x20 }
  - { offsetInCU: 0x11B72, offset: 0x11B72, size: 0x8, addend: 0x0, symName: __ZNKSt3__122__compressed_pair_elemImLi0ELb0EE5__getB8ue170006Ev, symObjAddr: 0x13A0, symBinAddr: 0x100001FF0, symSize: 0x10 }
  - { offsetInCU: 0x11B98, offset: 0x11B98, size: 0x8, addend: 0x0, symName: __ZNSt3__19allocatorIiE7destroyB8ue170006EPi, symObjAddr: 0x13E0, symBinAddr: 0x100002030, symSize: 0x10 }
  - { offsetInCU: 0x11BCC, offset: 0x11BCC, size: 0x8, addend: 0x0, symName: __ZNSt3__117__compressed_pairImNS_9allocatorIiEEE5firstB8ue170006Ev, symObjAddr: 0x13F0, symBinAddr: 0x100002040, symSize: 0x20 }
  - { offsetInCU: 0x11BF2, offset: 0x11BF2, size: 0x8, addend: 0x0, symName: __ZNSt3__122__compressed_pair_elemImLi0ELb0EE5__getB8ue170006Ev, symObjAddr: 0x1410, symBinAddr: 0x100002060, symSize: 0x10 }
  - { offsetInCU: 0x11C18, offset: 0x11C18, size: 0x8, addend: 0x0, symName: __ZNSt3__114__split_bufferIPiNS_9allocatorIS1_EEE19__destruct_at_beginB8ue170006EPS1_, symObjAddr: 0x1420, symBinAddr: 0x100002070, symSize: 0x30 }
  - { offsetInCU: 0x11C4C, offset: 0x11C4C, size: 0x8, addend: 0x0, symName: __ZNSt3__114__split_bufferIPiNS_9allocatorIS1_EEE19__destruct_at_beginEPS1_NS_17integral_constantIbLb1EEE, symObjAddr: 0x1450, symBinAddr: 0x1000020A0, symSize: 0x20 }
  - { offsetInCU: 0x11C8C, offset: 0x11C8C, size: 0x8, addend: 0x0, symName: __ZNKSt3__15dequeIiNS_9allocatorIiEEE18__annotate_from_toB8ue170006EmmNS3_22__asan_annotation_typeENS3_23__asan_annotation_placeE, symObjAddr: 0x1470, symBinAddr: 0x1000020C0, symSize: 0x560 }
  - { offsetInCU: 0x11E48, offset: 0x11E48, size: 0x8, addend: 0x0, symName: __ZNKSt3__114__split_bufferIPiNS_9allocatorIS1_EEE5beginB8ue170006Ev, symObjAddr: 0x19D0, symBinAddr: 0x100002620, symSize: 0x20 }
  - { offsetInCU: 0x11E6E, offset: 0x11E6E, size: 0x8, addend: 0x0, symName: __ZNKSt3__15dequeIiNS_9allocatorIiEEE5emptyB8ue170006Ev, symObjAddr: 0x19F0, symBinAddr: 0x100002640, symSize: 0x30 }
  - { offsetInCU: 0x11E94, offset: 0x11E94, size: 0x8, addend: 0x0, symName: __ZNKSt3__15dequeIiNS_9allocatorIiEEE44__annotate_double_ended_contiguous_containerB8ue170006EPKvS5_S5_S5_S5_S5_, symObjAddr: 0x1A30, symBinAddr: 0x100002680, symSize: 0x30 }
  - { offsetInCU: 0x11EFC, offset: 0x11EFC, size: 0x8, addend: 0x0, symName: __ZNKSt3__15dequeIiNS_9allocatorIiEEE22__annotate_whole_blockB8ue170006EmNS3_22__asan_annotation_typeE, symObjAddr: 0x1A60, symBinAddr: 0x1000026B0, symSize: 0xB0 }
  - { offsetInCU: 0x11F6D, offset: 0x11F6D, size: 0x8, addend: 0x0, symName: __ZNKSt3__15dequeIiNS_9allocatorIiEEE23__annotate_poison_blockB8ue170006EPKvS5_, symObjAddr: 0x1B10, symBinAddr: 0x100002760, symSize: 0x40 }
  - { offsetInCU: 0x11FB1, offset: 0x11FB1, size: 0x8, addend: 0x0, symName: __ZNSt3__19allocatorIiE10deallocateB8ue170006EPim, symObjAddr: 0x1B50, symBinAddr: 0x1000027A0, symSize: 0x70 }
  - { offsetInCU: 0x11FF3, offset: 0x11FF3, size: 0x8, addend: 0x0, symName: __ZNSt3__117__compressed_pairImNS_9allocatorIiEEE6secondB8ue170006Ev, symObjAddr: 0x1C40, symBinAddr: 0x100002890, symSize: 0x20 }
  - { offsetInCU: 0x12019, offset: 0x12019, size: 0x8, addend: 0x0, symName: __ZNSt3__122__compressed_pair_elemINS_9allocatorIiEELi1ELb1EE5__getB8ue170006Ev, symObjAddr: 0x1C60, symBinAddr: 0x1000028B0, symSize: 0x10 }
  - { offsetInCU: 0x1203F, offset: 0x1203F, size: 0x8, addend: 0x0, symName: __ZNSt3__114__split_bufferIPiNS_9allocatorIS1_EEED2Ev, symObjAddr: 0x1C70, symBinAddr: 0x1000028C0, symSize: 0x60 }
  - { offsetInCU: 0x1206B, offset: 0x1206B, size: 0x8, addend: 0x0, symName: __ZNSt3__114__split_bufferIPiNS_9allocatorIS1_EEE5clearB8ue170006Ev, symObjAddr: 0x1CD0, symBinAddr: 0x100002920, symSize: 0x20 }
  - { offsetInCU: 0x12091, offset: 0x12091, size: 0x8, addend: 0x0, symName: __ZNSt3__116allocator_traitsINS_9allocatorIPiEEE10deallocateB8ue170006ERS3_PS2_m, symObjAddr: 0x1CF0, symBinAddr: 0x100002940, symSize: 0x30 }
  - { offsetInCU: 0x120D3, offset: 0x120D3, size: 0x8, addend: 0x0, symName: __ZNSt3__114__split_bufferIPiNS_9allocatorIS1_EEE7__allocB8ue170006Ev, symObjAddr: 0x1D20, symBinAddr: 0x100002970, symSize: 0x20 }
  - { offsetInCU: 0x120F9, offset: 0x120F9, size: 0x8, addend: 0x0, symName: __ZNKSt3__114__split_bufferIPiNS_9allocatorIS1_EEE8capacityB8ue170006Ev, symObjAddr: 0x1D40, symBinAddr: 0x100002990, symSize: 0x30 }
  - { offsetInCU: 0x1211F, offset: 0x1211F, size: 0x8, addend: 0x0, symName: __ZNSt3__114__split_bufferIPiNS_9allocatorIS1_EEE17__destruct_at_endB8ue170006EPS1_, symObjAddr: 0x1D70, symBinAddr: 0x1000029C0, symSize: 0x30 }
  - { offsetInCU: 0x12153, offset: 0x12153, size: 0x8, addend: 0x0, symName: __ZNSt3__114__split_bufferIPiNS_9allocatorIS1_EEE17__destruct_at_endB8ue170006EPS1_NS_17integral_constantIbLb0EEE, symObjAddr: 0x1DA0, symBinAddr: 0x1000029F0, symSize: 0x80 }
  - { offsetInCU: 0x12193, offset: 0x12193, size: 0x8, addend: 0x0, symName: __ZNSt3__116allocator_traitsINS_9allocatorIPiEEE7destroyB8ue170006IS2_vEEvRS3_PT_, symObjAddr: 0x1E20, symBinAddr: 0x100002A70, symSize: 0x30 }
  - { offsetInCU: 0x121D0, offset: 0x121D0, size: 0x8, addend: 0x0, symName: __ZNSt3__19allocatorIPiE7destroyB8ue170006EPS1_, symObjAddr: 0x1E60, symBinAddr: 0x100002AB0, symSize: 0x10 }
  - { offsetInCU: 0x12204, offset: 0x12204, size: 0x8, addend: 0x0, symName: __ZNSt3__19allocatorIPiE10deallocateB8ue170006EPS1_m, symObjAddr: 0x1E70, symBinAddr: 0x100002AC0, symSize: 0x70 }
  - { offsetInCU: 0x12246, offset: 0x12246, size: 0x8, addend: 0x0, symName: __ZNSt3__117__compressed_pairIPPiNS_9allocatorIS1_EEE6secondB8ue170006Ev, symObjAddr: 0x1EE0, symBinAddr: 0x100002B30, symSize: 0x20 }
  - { offsetInCU: 0x1226C, offset: 0x1226C, size: 0x8, addend: 0x0, symName: __ZNSt3__122__compressed_pair_elemINS_9allocatorIPiEELi1ELb1EE5__getB8ue170006Ev, symObjAddr: 0x1F00, symBinAddr: 0x100002B50, symSize: 0x10 }
  - { offsetInCU: 0x12292, offset: 0x12292, size: 0x8, addend: 0x0, symName: __ZNKSt3__114__split_bufferIPiNS_9allocatorIS1_EEE9__end_capB8ue170006Ev, symObjAddr: 0x1F10, symBinAddr: 0x100002B60, symSize: 0x20 }
  - { offsetInCU: 0x122B8, offset: 0x122B8, size: 0x8, addend: 0x0, symName: __ZNKSt3__117__compressed_pairIPPiNS_9allocatorIS1_EEE5firstB8ue170006Ev, symObjAddr: 0x1F30, symBinAddr: 0x100002B80, symSize: 0x20 }
  - { offsetInCU: 0x122DE, offset: 0x122DE, size: 0x8, addend: 0x0, symName: __ZNKSt3__122__compressed_pair_elemIPPiLi0ELb0EE5__getB8ue170006Ev, symObjAddr: 0x1F50, symBinAddr: 0x100002BA0, symSize: 0x10 }
  - { offsetInCU: 0x12304, offset: 0x12304, size: 0x8, addend: 0x0, symName: __ZNSt3__16vectorIiNS_9allocatorIiEEEC2B8ue170006Ev, symObjAddr: 0x1F60, symBinAddr: 0x100002BB0, symSize: 0x40 }
  - { offsetInCU: 0x12338, offset: 0x12338, size: 0x8, addend: 0x0, symName: __ZNSt3__117__compressed_pairIPiNS_9allocatorIiEEEC1B8ue170006IDnNS_18__default_init_tagEEEOT_OT0_, symObjAddr: 0x1FA0, symBinAddr: 0x100002BF0, symSize: 0x30 }
  - { offsetInCU: 0x12390, offset: 0x12390, size: 0x8, addend: 0x0, symName: __ZNSt3__117__compressed_pairIPiNS_9allocatorIiEEEC2B8ue170006IDnNS_18__default_init_tagEEEOT_OT0_, symObjAddr: 0x1FD0, symBinAddr: 0x100002C20, symSize: 0x40 }
  - { offsetInCU: 0x123E8, offset: 0x123E8, size: 0x8, addend: 0x0, symName: __ZNSt3__122__compressed_pair_elemIPiLi0ELb0EEC2B8ue170006IDnvEEOT_, symObjAddr: 0x2010, symBinAddr: 0x100002C60, symSize: 0x20 }
  - { offsetInCU: 0x1242A, offset: 0x1242A, size: 0x8, addend: 0x0, symName: __ZNSt3__122__compressed_pair_elemINS_9allocatorIiEELi1ELb1EEC2B8ue170006ENS_18__default_init_tagE, symObjAddr: 0x2030, symBinAddr: 0x100002C80, symSize: 0x20 }
  - { offsetInCU: 0x1245E, offset: 0x1245E, size: 0x8, addend: 0x0, symName: __ZNSt3__19allocatorIiEC2B8ue170006Ev, symObjAddr: 0x2050, symBinAddr: 0x100002CA0, symSize: 0x20 }
  - { offsetInCU: 0x12488, offset: 0x12488, size: 0x8, addend: 0x0, symName: __ZNSt3__116__non_trivial_ifILb1ENS_9allocatorIiEEEC2B8ue170006Ev, symObjAddr: 0x2070, symBinAddr: 0x100002CC0, symSize: 0x10 }
  - { offsetInCU: 0x124B2, offset: 0x124B2, size: 0x8, addend: 0x0, symName: __ZNSt3__16vectorIiNS_9allocatorIiEEED2B8ue170006Ev, symObjAddr: 0x2080, symBinAddr: 0x100002CD0, symSize: 0x30 }
  - { offsetInCU: 0x124DC, offset: 0x124DC, size: 0x8, addend: 0x0, symName: __ZNSt3__16vectorIiNS_9allocatorIiEEE16__destroy_vectorC1B8ue170006ERS3_, symObjAddr: 0x20B0, symBinAddr: 0x100002D00, symSize: 0x30 }
  - { offsetInCU: 0x12515, offset: 0x12515, size: 0x8, addend: 0x0, symName: __ZNSt3__16vectorIiNS_9allocatorIiEEE16__destroy_vectorclB8ue170006Ev, symObjAddr: 0x20E0, symBinAddr: 0x100002D30, symSize: 0x80 }
  - { offsetInCU: 0x1253B, offset: 0x1253B, size: 0x8, addend: 0x0, symName: __ZNSt3__16vectorIiNS_9allocatorIiEEE16__destroy_vectorC2B8ue170006ERS3_, symObjAddr: 0x2160, symBinAddr: 0x100002DB0, symSize: 0x20 }
  - { offsetInCU: 0x12574, offset: 0x12574, size: 0x8, addend: 0x0, symName: __ZNSt3__16vectorIiNS_9allocatorIiEEE7__clearB8ue170006Ev, symObjAddr: 0x2180, symBinAddr: 0x100002DD0, symSize: 0x20 }
  - { offsetInCU: 0x1259A, offset: 0x1259A, size: 0x8, addend: 0x0, symName: __ZNKSt3__16vectorIiNS_9allocatorIiEEE17__annotate_deleteB8ue170006Ev, symObjAddr: 0x21A0, symBinAddr: 0x100002DF0, symSize: 0xB0 }
  - { offsetInCU: 0x125C0, offset: 0x125C0, size: 0x8, addend: 0x0, symName: __ZNSt3__16vectorIiNS_9allocatorIiEEE7__allocB8ue170006Ev, symObjAddr: 0x2250, symBinAddr: 0x100002EA0, symSize: 0x20 }
  - { offsetInCU: 0x125E6, offset: 0x125E6, size: 0x8, addend: 0x0, symName: __ZNKSt3__16vectorIiNS_9allocatorIiEEE8capacityB8ue170006Ev, symObjAddr: 0x2270, symBinAddr: 0x100002EC0, symSize: 0x30 }
  - { offsetInCU: 0x1260C, offset: 0x1260C, size: 0x8, addend: 0x0, symName: __ZNSt3__16vectorIiNS_9allocatorIiEEE22__base_destruct_at_endB8ue170006EPi, symObjAddr: 0x22A0, symBinAddr: 0x100002EF0, symSize: 0x90 }
  - { offsetInCU: 0x12650, offset: 0x12650, size: 0x8, addend: 0x0, symName: __ZNKSt3__16vectorIiNS_9allocatorIiEEE31__annotate_contiguous_containerB8ue170006EPKvS5_S5_S5_, symObjAddr: 0x2330, symBinAddr: 0x100002F80, symSize: 0x20 }
  - { offsetInCU: 0x126A2, offset: 0x126A2, size: 0x8, addend: 0x0, symName: __ZNKSt3__16vectorIiNS_9allocatorIiEEE4dataB8ue170006Ev, symObjAddr: 0x2350, symBinAddr: 0x100002FA0, symSize: 0x20 }
  - { offsetInCU: 0x126C8, offset: 0x126C8, size: 0x8, addend: 0x0, symName: __ZNKSt3__16vectorIiNS_9allocatorIiEEE4sizeB8ue170006Ev, symObjAddr: 0x2370, symBinAddr: 0x100002FC0, symSize: 0x20 }
  - { offsetInCU: 0x126EE, offset: 0x126EE, size: 0x8, addend: 0x0, symName: __ZNSt3__117__compressed_pairIPiNS_9allocatorIiEEE6secondB8ue170006Ev, symObjAddr: 0x2390, symBinAddr: 0x100002FE0, symSize: 0x20 }
  - { offsetInCU: 0x12714, offset: 0x12714, size: 0x8, addend: 0x0, symName: __ZNKSt3__16vectorIiNS_9allocatorIiEEE9__end_capB8ue170006Ev, symObjAddr: 0x23B0, symBinAddr: 0x100003000, symSize: 0x20 }
  - { offsetInCU: 0x1273A, offset: 0x1273A, size: 0x8, addend: 0x0, symName: __ZNKSt3__117__compressed_pairIPiNS_9allocatorIiEEE5firstB8ue170006Ev, symObjAddr: 0x23D0, symBinAddr: 0x100003020, symSize: 0x20 }
  - { offsetInCU: 0x12760, offset: 0x12760, size: 0x8, addend: 0x0, symName: __ZNKSt3__122__compressed_pair_elemIPiLi0ELb0EE5__getB8ue170006Ev, symObjAddr: 0x23F0, symBinAddr: 0x100003040, symSize: 0x10 }
  - { offsetInCU: 0x12786, offset: 0x12786, size: 0x8, addend: 0x0, symName: __ZNSt3__15dequeIiNS_9allocatorIiEEE5frontEv, symObjAddr: 0x2400, symBinAddr: 0x100003050, symSize: 0x50 }
  - { offsetInCU: 0x127AE, offset: 0x127AE, size: 0x8, addend: 0x0, symName: __ZNSt3__16vectorIiNS_9allocatorIiEEE9__end_capB8ue170006Ev, symObjAddr: 0x2450, symBinAddr: 0x1000030A0, symSize: 0x20 }
  - { offsetInCU: 0x127D4, offset: 0x127D4, size: 0x8, addend: 0x0, symName: __ZNSt3__16vectorIiNS_9allocatorIiEEE22__construct_one_at_endB8ue170006IJRKiEEEvDpOT_, symObjAddr: 0x2470, symBinAddr: 0x1000030C0, symSize: 0xA0 }
  - { offsetInCU: 0x12823, offset: 0x12823, size: 0x8, addend: 0x0, symName: __ZNSt3__16vectorIiNS_9allocatorIiEEE21__push_back_slow_pathIRKiEEvOT_, symObjAddr: 0x2510, symBinAddr: 0x100003160, symSize: 0xE0 }
  - { offsetInCU: 0x12881, offset: 0x12881, size: 0x8, addend: 0x0, symName: __ZNSt3__117__compressed_pairIPiNS_9allocatorIiEEE5firstB8ue170006Ev, symObjAddr: 0x25F0, symBinAddr: 0x100003240, symSize: 0x20 }
  - { offsetInCU: 0x128A7, offset: 0x128A7, size: 0x8, addend: 0x0, symName: __ZNSt3__122__compressed_pair_elemIPiLi0ELb0EE5__getB8ue170006Ev, symObjAddr: 0x2610, symBinAddr: 0x100003260, symSize: 0x10 }
  - { offsetInCU: 0x128E6, offset: 0x128E6, size: 0x8, addend: 0x0, symName: __ZNSt3__16vectorIiNS_9allocatorIiEEE21_ConstructTransactionC1B8ue170006ERS3_m, symObjAddr: 0x2620, symBinAddr: 0x100003270, symSize: 0x30 }
  - { offsetInCU: 0x1292E, offset: 0x1292E, size: 0x8, addend: 0x0, symName: __ZNSt3__116allocator_traitsINS_9allocatorIiEEE9constructB8ue170006IiJRKiEvEEvRS2_PT_DpOT0_, symObjAddr: 0x2650, symBinAddr: 0x1000032A0, symSize: 0x30 }
  - { offsetInCU: 0x12985, offset: 0x12985, size: 0x8, addend: 0x0, symName: __ZNSt3__16vectorIiNS_9allocatorIiEEE21_ConstructTransactionD1B8ue170006Ev, symObjAddr: 0x2680, symBinAddr: 0x1000032D0, symSize: 0x20 }
  - { offsetInCU: 0x129AF, offset: 0x129AF, size: 0x8, addend: 0x0, symName: __ZNSt3__16vectorIiNS_9allocatorIiEEE21_ConstructTransactionC2B8ue170006ERS3_m, symObjAddr: 0x26A0, symBinAddr: 0x1000032F0, symSize: 0x40 }
  - { offsetInCU: 0x129F7, offset: 0x129F7, size: 0x8, addend: 0x0, symName: __ZNSt3__19allocatorIiE9constructB8ue170006IiJRKiEEEvPT_DpOT0_, symObjAddr: 0x26E0, symBinAddr: 0x100003330, symSize: 0x20 }
  - { offsetInCU: 0x12A4D, offset: 0x12A4D, size: 0x8, addend: 0x0, symName: __ZNSt3__16vectorIiNS_9allocatorIiEEE21_ConstructTransactionD2B8ue170006Ev, symObjAddr: 0x2700, symBinAddr: 0x100003350, symSize: 0x20 }
  - { offsetInCU: 0x12A77, offset: 0x12A77, size: 0x8, addend: 0x0, symName: __ZNKSt3__16vectorIiNS_9allocatorIiEEE11__recommendB8ue170006Em, symObjAddr: 0x2720, symBinAddr: 0x100003370, symSize: 0xA0 }
  - { offsetInCU: 0x12ACC, offset: 0x12ACC, size: 0x8, addend: 0x0, symName: __ZNSt3__114__split_bufferIiRNS_9allocatorIiEEEC1EmmS3_, symObjAddr: 0x27C0, symBinAddr: 0x100003410, symSize: 0x40 }
  - { offsetInCU: 0x12B22, offset: 0x12B22, size: 0x8, addend: 0x0, symName: __ZNSt3__114__split_bufferIiRNS_9allocatorIiEEED1Ev, symObjAddr: 0x2920, symBinAddr: 0x100003570, symSize: 0x20 }
  - { offsetInCU: 0x12B4E, offset: 0x12B4E, size: 0x8, addend: 0x0, symName: __ZNKSt3__16vectorIiNS_9allocatorIiEEE8max_sizeEv, symObjAddr: 0x2940, symBinAddr: 0x100003590, symSize: 0x70 }
  - { offsetInCU: 0x12B76, offset: 0x12B76, size: 0x8, addend: 0x0, symName: __ZNKSt3__16vectorIiNS_9allocatorIiEEE20__throw_length_errorB8ue170006Ev, symObjAddr: 0x29B0, symBinAddr: 0x100003600, symSize: 0x20 }
  - { offsetInCU: 0x12BA6, offset: 0x12BA6, size: 0x8, addend: 0x0, symName: __ZNSt3__116allocator_traitsINS_9allocatorIiEEE8max_sizeB8ue170006IS2_vEEmRKS2_, symObjAddr: 0x2A30, symBinAddr: 0x100003680, symSize: 0x20 }
  - { offsetInCU: 0x12BD4, offset: 0x12BD4, size: 0x8, addend: 0x0, symName: __ZNKSt3__16vectorIiNS_9allocatorIiEEE7__allocB8ue170006Ev, symObjAddr: 0x2A50, symBinAddr: 0x1000036A0, symSize: 0x20 }
  - { offsetInCU: 0x12BFA, offset: 0x12BFA, size: 0x8, addend: 0x0, symName: __ZNSt3__114numeric_limitsIlE3maxB8ue170006Ev, symObjAddr: 0x2A70, symBinAddr: 0x1000036C0, symSize: 0x10 }
  - { offsetInCU: 0x12C18, offset: 0x12C18, size: 0x8, addend: 0x0, symName: __ZNKSt3__16__lessIvvEclB8ue170006ImmEEbRKT_RKT0_, symObjAddr: 0x2AD0, symBinAddr: 0x100003720, symSize: 0x30 }
  - { offsetInCU: 0x12C6C, offset: 0x12C6C, size: 0x8, addend: 0x0, symName: __ZNKSt3__19allocatorIiE8max_sizeB8ue170006Ev, symObjAddr: 0x2B00, symBinAddr: 0x100003750, symSize: 0x20 }
  - { offsetInCU: 0x12C92, offset: 0x12C92, size: 0x8, addend: 0x0, symName: __ZNKSt3__117__compressed_pairIPiNS_9allocatorIiEEE6secondB8ue170006Ev, symObjAddr: 0x2B20, symBinAddr: 0x100003770, symSize: 0x20 }
  - { offsetInCU: 0x12CB8, offset: 0x12CB8, size: 0x8, addend: 0x0, symName: __ZNKSt3__122__compressed_pair_elemINS_9allocatorIiEELi1ELb1EE5__getB8ue170006Ev, symObjAddr: 0x2B40, symBinAddr: 0x100003790, symSize: 0x10 }
  - { offsetInCU: 0x12CDE, offset: 0x12CDE, size: 0x8, addend: 0x0, symName: __ZNSt3__123__libcpp_numeric_limitsIlLb1EE3maxB8ue170006Ev, symObjAddr: 0x2B50, symBinAddr: 0x1000037A0, symSize: 0x10 }
  - { offsetInCU: 0x12CF2, offset: 0x12CF2, size: 0x8, addend: 0x0, symName: __ZNSt12length_errorC1B8ue170006EPKc, symObjAddr: 0x2BD0, symBinAddr: 0x100003820, symSize: 0x30 }
  - { offsetInCU: 0x12D2A, offset: 0x12D2A, size: 0x8, addend: 0x0, symName: __ZNSt12length_errorC2B8ue170006EPKc, symObjAddr: 0x2C00, symBinAddr: 0x100003850, symSize: 0x40 }
  - { offsetInCU: 0x12D62, offset: 0x12D62, size: 0x8, addend: 0x0, symName: __ZNSt3__114__split_bufferIiRNS_9allocatorIiEEEC2EmmS3_, symObjAddr: 0x2C90, symBinAddr: 0x1000038E0, symSize: 0xD0 }
  - { offsetInCU: 0x12DD6, offset: 0x12DD6, size: 0x8, addend: 0x0, symName: __ZNSt3__117__compressed_pairIPiRNS_9allocatorIiEEEC1B8ue170006IDnS4_EEOT_OT0_, symObjAddr: 0x2D60, symBinAddr: 0x1000039B0, symSize: 0x30 }
  - { offsetInCU: 0x12E2E, offset: 0x12E2E, size: 0x8, addend: 0x0, symName: __ZNSt3__114__split_bufferIiRNS_9allocatorIiEEE7__allocB8ue170006Ev, symObjAddr: 0x2DD0, symBinAddr: 0x100003A20, symSize: 0x20 }
  - { offsetInCU: 0x12E54, offset: 0x12E54, size: 0x8, addend: 0x0, symName: __ZNSt3__114__split_bufferIiRNS_9allocatorIiEEE9__end_capB8ue170006Ev, symObjAddr: 0x2DF0, symBinAddr: 0x100003A40, symSize: 0x20 }
  - { offsetInCU: 0x12E7A, offset: 0x12E7A, size: 0x8, addend: 0x0, symName: __ZNSt3__117__compressed_pairIPiRNS_9allocatorIiEEEC2B8ue170006IDnS4_EEOT_OT0_, symObjAddr: 0x2E10, symBinAddr: 0x100003A60, symSize: 0x40 }
  - { offsetInCU: 0x12ED2, offset: 0x12ED2, size: 0x8, addend: 0x0, symName: __ZNSt3__122__compressed_pair_elemIRNS_9allocatorIiEELi1ELb0EEC2B8ue170006IS3_vEEOT_, symObjAddr: 0x2E50, symBinAddr: 0x100003AA0, symSize: 0x20 }
  - { offsetInCU: 0x12F14, offset: 0x12F14, size: 0x8, addend: 0x0, symName: __ZNSt3__19allocatorIiE8allocateB8ue170006Em, symObjAddr: 0x2E70, symBinAddr: 0x100003AC0, symSize: 0x80 }
  - { offsetInCU: 0x12F48, offset: 0x12F48, size: 0x8, addend: 0x0, symName: __ZNSt3__117__compressed_pairIPiRNS_9allocatorIiEEE6secondB8ue170006Ev, symObjAddr: 0x2F70, symBinAddr: 0x100003BC0, symSize: 0x20 }
  - { offsetInCU: 0x12F6E, offset: 0x12F6E, size: 0x8, addend: 0x0, symName: __ZNSt3__122__compressed_pair_elemIRNS_9allocatorIiEELi1ELb0EE5__getB8ue170006Ev, symObjAddr: 0x2F90, symBinAddr: 0x100003BE0, symSize: 0x20 }
  - { offsetInCU: 0x12F94, offset: 0x12F94, size: 0x8, addend: 0x0, symName: __ZNSt3__117__compressed_pairIPiRNS_9allocatorIiEEE5firstB8ue170006Ev, symObjAddr: 0x2FB0, symBinAddr: 0x100003C00, symSize: 0x20 }
  - { offsetInCU: 0x12FBA, offset: 0x12FBA, size: 0x8, addend: 0x0, symName: __ZNSt3__116reverse_iteratorIPiEC1B8ue170006ES1_, symObjAddr: 0x30F0, symBinAddr: 0x100003D40, symSize: 0x30 }
  - { offsetInCU: 0x12FF2, offset: 0x12FF2, size: 0x8, addend: 0x0, symName: __ZNKSt3__116reverse_iteratorIPiE4baseB8ue170006Ev, symObjAddr: 0x3120, symBinAddr: 0x100003D70, symSize: 0x20 }
  - { offsetInCU: 0x13018, offset: 0x13018, size: 0x8, addend: 0x0, symName: __ZNKSt3__16vectorIiNS_9allocatorIiEEE14__annotate_newB8ue170006Em, symObjAddr: 0x3180, symBinAddr: 0x100003DD0, symSize: 0xB0 }
  - { offsetInCU: 0x1304D, offset: 0x1304D, size: 0x8, addend: 0x0, symName: __ZNKSt3__116reverse_iteratorIPiEdeB8ue170006Ev, symObjAddr: 0x32C0, symBinAddr: 0x100003F10, symSize: 0x30 }
  - { offsetInCU: 0x13081, offset: 0x13081, size: 0x8, addend: 0x0, symName: __ZNSt3__116reverse_iteratorIPiEppB8ue170006Ev, symObjAddr: 0x32F0, symBinAddr: 0x100003F40, symSize: 0x20 }
  - { offsetInCU: 0x130AC, offset: 0x130AC, size: 0x8, addend: 0x0, symName: __ZNSt3__119__to_address_helperINS_16reverse_iteratorIPiEEvE6__callB8ue170006ERKS3_, symObjAddr: 0x3390, symBinAddr: 0x100003FE0, symSize: 0x50 }
  - { offsetInCU: 0x130CF, offset: 0x130CF, size: 0x8, addend: 0x0, symName: __ZNKSt3__116reverse_iteratorIPiEptB8ue170006Ev, symObjAddr: 0x33E0, symBinAddr: 0x100004030, symSize: 0x20 }
  - { offsetInCU: 0x13118, offset: 0x13118, size: 0x8, addend: 0x0, symName: __ZNKSt3__111__move_loopINS_17_ClassicAlgPolicyEEclB8ue170006INS_16reverse_iteratorIPiEES6_S6_EENS_4pairIT_T1_EES8_T0_S9_, symObjAddr: 0x37C0, symBinAddr: 0x100004410, symSize: 0xA0 }
  - { offsetInCU: 0x13188, offset: 0x13188, size: 0x8, addend: 0x0, symName: __ZNSt3__18_IterOpsINS_17_ClassicAlgPolicyEE11__iter_moveB8ue170006IRNS_16reverse_iteratorIPiEEEENS_9enable_ifIXsr12is_referenceIDTdeclsr3stdE7declvalIRT_EEEEE5valueEDTclsr3stdE4movedeclsr3stdE7declvalISA_EEEEE4typeEOS9_, symObjAddr: 0x39B0, symBinAddr: 0x100004600, symSize: 0x20 }
  - { offsetInCU: 0x131B4, offset: 0x131B4, size: 0x8, addend: 0x0, symName: __ZNSt3__18_IterOpsINS_17_ClassicAlgPolicyEE25__validate_iter_referenceB8ue170006IRNS_16reverse_iteratorIPiEEEEvv, symObjAddr: 0x39D0, symBinAddr: 0x100004620, symSize: 0x10 }
  - { offsetInCU: 0x131D2, offset: 0x131D2, size: 0x8, addend: 0x0, symName: __ZNSt3__118__unwrap_iter_implINS_16reverse_iteratorIPiEELb0EE8__unwrapB8ue170006ES3_, symObjAddr: 0x39E0, symBinAddr: 0x100004630, symSize: 0x20 }
  - { offsetInCU: 0x131F5, offset: 0x131F5, size: 0x8, addend: 0x0, symName: __ZNSt3__14pairINS_16reverse_iteratorIPiEES3_EC1B8ue170006ERKS3_S6_, symObjAddr: 0x3A00, symBinAddr: 0x100004650, symSize: 0x30 }
  - { offsetInCU: 0x1323B, offset: 0x1323B, size: 0x8, addend: 0x0, symName: __ZNSt3__14pairINS_16reverse_iteratorIPiEES3_EC2B8ue170006ERKS3_S6_, symObjAddr: 0x3A30, symBinAddr: 0x100004680, symSize: 0x40 }
  - { offsetInCU: 0x13281, offset: 0x13281, size: 0x8, addend: 0x0, symName: __ZNSt3__118__unwrap_iter_implINS_16reverse_iteratorIPiEELb0EE8__rewrapB8ue170006ES3_S3_, symObjAddr: 0x3A70, symBinAddr: 0x1000046C0, symSize: 0x30 }
  - { offsetInCU: 0x132AE, offset: 0x132AE, size: 0x8, addend: 0x0, symName: __ZNSt3__116reverse_iteratorIPiEC2B8ue170006ES1_, symObjAddr: 0x3AA0, symBinAddr: 0x1000046F0, symSize: 0x30 }
  - { offsetInCU: 0x132E6, offset: 0x132E6, size: 0x8, addend: 0x0, symName: __ZNSt3__114__split_bufferIiRNS_9allocatorIiEEED2Ev, symObjAddr: 0x3AD0, symBinAddr: 0x100004720, symSize: 0x60 }
  - { offsetInCU: 0x13312, offset: 0x13312, size: 0x8, addend: 0x0, symName: __ZNSt3__114__split_bufferIiRNS_9allocatorIiEEE5clearB8ue170006Ev, symObjAddr: 0x3B30, symBinAddr: 0x100004780, symSize: 0x20 }
  - { offsetInCU: 0x13338, offset: 0x13338, size: 0x8, addend: 0x0, symName: __ZNKSt3__114__split_bufferIiRNS_9allocatorIiEEE8capacityB8ue170006Ev, symObjAddr: 0x3B50, symBinAddr: 0x1000047A0, symSize: 0x30 }
  - { offsetInCU: 0x1335E, offset: 0x1335E, size: 0x8, addend: 0x0, symName: __ZNSt3__114__split_bufferIiRNS_9allocatorIiEEE17__destruct_at_endB8ue170006EPi, symObjAddr: 0x3B80, symBinAddr: 0x1000047D0, symSize: 0x30 }
  - { offsetInCU: 0x13392, offset: 0x13392, size: 0x8, addend: 0x0, symName: __ZNSt3__114__split_bufferIiRNS_9allocatorIiEEE17__destruct_at_endB8ue170006EPiNS_17integral_constantIbLb0EEE, symObjAddr: 0x3BB0, symBinAddr: 0x100004800, symSize: 0x80 }
  - { offsetInCU: 0x133D2, offset: 0x133D2, size: 0x8, addend: 0x0, symName: __ZNKSt3__114__split_bufferIiRNS_9allocatorIiEEE9__end_capB8ue170006Ev, symObjAddr: 0x3C30, symBinAddr: 0x100004880, symSize: 0x20 }
  - { offsetInCU: 0x133F8, offset: 0x133F8, size: 0x8, addend: 0x0, symName: __ZNKSt3__117__compressed_pairIPiRNS_9allocatorIiEEE5firstB8ue170006Ev, symObjAddr: 0x3C50, symBinAddr: 0x1000048A0, symSize: 0x20 }
  - { offsetInCU: 0x1341E, offset: 0x1341E, size: 0x8, addend: 0x0, symName: __ZNSt3__15dequeIiNS_9allocatorIiEEE9pop_frontEv, symObjAddr: 0x3C70, symBinAddr: 0x1000048C0, symSize: 0xC0 }
  - { offsetInCU: 0x13473, offset: 0x13473, size: 0x8, addend: 0x0, symName: __ZNKSt3__15dequeIiNS_9allocatorIiEEE23__annotate_shrink_frontB8ue170006Emm, symObjAddr: 0x3D30, symBinAddr: 0x100004980, symSize: 0x70 }
  - { offsetInCU: 0x134B7, offset: 0x134B7, size: 0x8, addend: 0x0, symName: __ZNSt3__15dequeIiNS_9allocatorIiEEE26__maybe_remove_front_spareB8ue170006Eb, symObjAddr: 0x3DA0, symBinAddr: 0x1000049F0, symSize: 0xC0 }
  - { offsetInCU: 0x134EC, offset: 0x134EC, size: 0x8, addend: 0x0, symName: __ZNKSt3__15dequeIiNS_9allocatorIiEEE20__front_spare_blocksB8ue170006Ev, symObjAddr: 0x3E60, symBinAddr: 0x100004AB0, symSize: 0x20 }
  - { offsetInCU: 0x13512, offset: 0x13512, size: 0x8, addend: 0x0, symName: __ZNKSt3__15dequeIiNS_9allocatorIiEEE13__front_spareB8ue170006Ev, symObjAddr: 0x3E80, symBinAddr: 0x100004AD0, symSize: 0x20 }
  - { offsetInCU: 0x13538, offset: 0x13538, size: 0x8, addend: 0x0, symName: __ZNSt3__16vectorIiNS_9allocatorIiEEE11__make_iterB8ue170006EPi, symObjAddr: 0x3EA0, symBinAddr: 0x100004AF0, symSize: 0x30 }
  - { offsetInCU: 0x1356D, offset: 0x1356D, size: 0x8, addend: 0x0, symName: __ZNSt3__111__wrap_iterIPiEC1B8ue170006ES1_, symObjAddr: 0x3ED0, symBinAddr: 0x100004B20, symSize: 0x30 }
  - { offsetInCU: 0x135A5, offset: 0x135A5, size: 0x8, addend: 0x0, symName: __ZNSt3__111__wrap_iterIPiEC2B8ue170006ES1_, symObjAddr: 0x3F00, symBinAddr: 0x100004B50, symSize: 0x20 }
  - { offsetInCU: 0x135DD, offset: 0x135DD, size: 0x8, addend: 0x0, symName: __ZNKSt3__111__wrap_iterIPiE4baseB8ue170006Ev, symObjAddr: 0x3F60, symBinAddr: 0x100004BB0, symSize: 0x20 }
  - { offsetInCU: 0x13603, offset: 0x13603, size: 0x8, addend: 0x0, symName: __ZNSt3__111char_traitsIcE6lengthB8ue170006EPKc, symObjAddr: 0x4170, symBinAddr: 0x100004DC0, symSize: 0x40 }
  - { offsetInCU: 0x13644, offset: 0x13644, size: 0x8, addend: 0x0, symName: __ZNKSt3__113basic_ostreamIcNS_11char_traitsIcEEE6sentrycvbB8ue170006Ev, symObjAddr: 0x41B0, symBinAddr: 0x100004E00, symSize: 0x20 }
  - { offsetInCU: 0x1366A, offset: 0x1366A, size: 0x8, addend: 0x0, symName: __ZNSt3__119ostreambuf_iteratorIcNS_11char_traitsIcEEEC1B8ue170006ERNS_13basic_ostreamIcS2_EE, symObjAddr: 0x43F0, symBinAddr: 0x100005040, symSize: 0x30 }
  - { offsetInCU: 0x136A2, offset: 0x136A2, size: 0x8, addend: 0x0, symName: __ZNKSt3__18ios_base5flagsB8ue170006Ev, symObjAddr: 0x4420, symBinAddr: 0x100005070, symSize: 0x20 }
  - { offsetInCU: 0x136CA, offset: 0x136CA, size: 0x8, addend: 0x0, symName: __ZNKSt3__19basic_iosIcNS_11char_traitsIcEEE4fillB8ue170006Ev, symObjAddr: 0x4440, symBinAddr: 0x100005090, symSize: 0x70 }
  - { offsetInCU: 0x136F2, offset: 0x136F2, size: 0x8, addend: 0x0, symName: __ZNKSt3__119ostreambuf_iteratorIcNS_11char_traitsIcEEE6failedB8ue170006Ev, symObjAddr: 0x44B0, symBinAddr: 0x100005100, symSize: 0x20 }
  - { offsetInCU: 0x13718, offset: 0x13718, size: 0x8, addend: 0x0, symName: __ZNSt3__19basic_iosIcNS_11char_traitsIcEEE8setstateB8ue170006Ej, symObjAddr: 0x44D0, symBinAddr: 0x100005120, symSize: 0x30 }
  - { offsetInCU: 0x1374D, offset: 0x1374D, size: 0x8, addend: 0x0, symName: __ZNKSt3__18ios_base5widthB8ue170006Ev, symObjAddr: 0x4500, symBinAddr: 0x100005150, symSize: 0x20 }
  - { offsetInCU: 0x13775, offset: 0x13775, size: 0x8, addend: 0x0, symName: __ZNSt3__115basic_streambufIcNS_11char_traitsIcEEE5sputnB8ue170006EPKcl, symObjAddr: 0x4520, symBinAddr: 0x100005170, symSize: 0x30 }
  - { offsetInCU: 0x137B7, offset: 0x137B7, size: 0x8, addend: 0x0, symName: __ZNSt3__112basic_stringIcNS_11char_traitsIcEENS_9allocatorIcEEEC1B8ue170006Emc, symObjAddr: 0x4550, symBinAddr: 0x1000051A0, symSize: 0x30 }
  - { offsetInCU: 0x137FF, offset: 0x137FF, size: 0x8, addend: 0x0, symName: __ZNKSt3__112basic_stringIcNS_11char_traitsIcEENS_9allocatorIcEEE4dataB8ue170006Ev, symObjAddr: 0x4580, symBinAddr: 0x1000051D0, symSize: 0x30 }
  - { offsetInCU: 0x13825, offset: 0x13825, size: 0x8, addend: 0x0, symName: __ZNSt3__18ios_base5widthB8ue170006El, symObjAddr: 0x45B0, symBinAddr: 0x100005200, symSize: 0x30 }
  - { offsetInCU: 0x1386B, offset: 0x1386B, size: 0x8, addend: 0x0, symName: __ZNSt3__112basic_stringIcNS_11char_traitsIcEENS_9allocatorIcEEEC2B8ue170006Emc, symObjAddr: 0x45E0, symBinAddr: 0x100005230, symSize: 0x50 }
  - { offsetInCU: 0x138B3, offset: 0x138B3, size: 0x8, addend: 0x0, symName: __ZNSt3__117__compressed_pairINS_12basic_stringIcNS_11char_traitsIcEENS_9allocatorIcEEE5__repES5_EC1B8ue170006INS_18__default_init_tagESA_EEOT_OT0_, symObjAddr: 0x4630, symBinAddr: 0x100005280, symSize: 0x30 }
  - { offsetInCU: 0x1390B, offset: 0x1390B, size: 0x8, addend: 0x0, symName: __ZNSt3__117__compressed_pairINS_12basic_stringIcNS_11char_traitsIcEENS_9allocatorIcEEE5__repES5_EC2B8ue170006INS_18__default_init_tagESA_EEOT_OT0_, symObjAddr: 0x4660, symBinAddr: 0x1000052B0, symSize: 0x30 }
  - { offsetInCU: 0x13963, offset: 0x13963, size: 0x8, addend: 0x0, symName: __ZNSt3__122__compressed_pair_elemINS_12basic_stringIcNS_11char_traitsIcEENS_9allocatorIcEEE5__repELi0ELb0EEC2B8ue170006ENS_18__default_init_tagE, symObjAddr: 0x4690, symBinAddr: 0x1000052E0, symSize: 0x10 }
  - { offsetInCU: 0x13997, offset: 0x13997, size: 0x8, addend: 0x0, symName: __ZNSt3__122__compressed_pair_elemINS_9allocatorIcEELi1ELb1EEC2B8ue170006ENS_18__default_init_tagE, symObjAddr: 0x46A0, symBinAddr: 0x1000052F0, symSize: 0x20 }
  - { offsetInCU: 0x139CB, offset: 0x139CB, size: 0x8, addend: 0x0, symName: __ZNSt3__19allocatorIcEC2B8ue170006Ev, symObjAddr: 0x46C0, symBinAddr: 0x100005310, symSize: 0x20 }
  - { offsetInCU: 0x139F5, offset: 0x139F5, size: 0x8, addend: 0x0, symName: __ZNSt3__116__non_trivial_ifILb1ENS_9allocatorIcEEEC2B8ue170006Ev, symObjAddr: 0x46E0, symBinAddr: 0x100005330, symSize: 0x10 }
  - { offsetInCU: 0x13A1F, offset: 0x13A1F, size: 0x8, addend: 0x0, symName: __ZNKSt3__112basic_stringIcNS_11char_traitsIcEENS_9allocatorIcEEE13__get_pointerB8ue170006Ev, symObjAddr: 0x4700, symBinAddr: 0x100005350, symSize: 0x50 }
  - { offsetInCU: 0x13A45, offset: 0x13A45, size: 0x8, addend: 0x0, symName: __ZNKSt3__112basic_stringIcNS_11char_traitsIcEENS_9allocatorIcEEE9__is_longB8ue170006Ev, symObjAddr: 0x4750, symBinAddr: 0x1000053A0, symSize: 0x60 }
  - { offsetInCU: 0x13A6B, offset: 0x13A6B, size: 0x8, addend: 0x0, symName: __ZNKSt3__112basic_stringIcNS_11char_traitsIcEENS_9allocatorIcEEE18__get_long_pointerB8ue170006Ev, symObjAddr: 0x47B0, symBinAddr: 0x100005400, symSize: 0x20 }
  - { offsetInCU: 0x13A91, offset: 0x13A91, size: 0x8, addend: 0x0, symName: __ZNKSt3__112basic_stringIcNS_11char_traitsIcEENS_9allocatorIcEEE19__get_short_pointerB8ue170006Ev, symObjAddr: 0x47D0, symBinAddr: 0x100005420, symSize: 0x30 }
  - { offsetInCU: 0x13AB7, offset: 0x13AB7, size: 0x8, addend: 0x0, symName: __ZNKSt3__117__compressed_pairINS_12basic_stringIcNS_11char_traitsIcEENS_9allocatorIcEEE5__repES5_E5firstB8ue170006Ev, symObjAddr: 0x4800, symBinAddr: 0x100005450, symSize: 0x20 }
  - { offsetInCU: 0x13ADD, offset: 0x13ADD, size: 0x8, addend: 0x0, symName: __ZNKSt3__122__compressed_pair_elemINS_12basic_stringIcNS_11char_traitsIcEENS_9allocatorIcEEE5__repELi0ELb0EE5__getB8ue170006Ev, symObjAddr: 0x4820, symBinAddr: 0x100005470, symSize: 0x10 }
  - { offsetInCU: 0x13B03, offset: 0x13B03, size: 0x8, addend: 0x0, symName: __ZNSt3__114pointer_traitsIPKcE10pointer_toB8ue170006ERS1_, symObjAddr: 0x4830, symBinAddr: 0x100005480, symSize: 0x10 }
  - { offsetInCU: 0x13B26, offset: 0x13B26, size: 0x8, addend: 0x0, symName: __ZNSt3__119ostreambuf_iteratorIcNS_11char_traitsIcEEEC2B8ue170006ERNS_13basic_ostreamIcS2_EE, symObjAddr: 0x4840, symBinAddr: 0x100005490, symSize: 0x60 }
  - { offsetInCU: 0x13B5E, offset: 0x13B5E, size: 0x8, addend: 0x0, symName: __ZNKSt3__19basic_iosIcNS_11char_traitsIcEEE5rdbufB8ue170006Ev, symObjAddr: 0x48A0, symBinAddr: 0x1000054F0, symSize: 0x20 }
  - { offsetInCU: 0x13B86, offset: 0x13B86, size: 0x8, addend: 0x0, symName: __ZNKSt3__18ios_base5rdbufB8ue170006Ev, symObjAddr: 0x48C0, symBinAddr: 0x100005510, symSize: 0x20 }
  - { offsetInCU: 0x13BAC, offset: 0x13BAC, size: 0x8, addend: 0x0, symName: __ZNSt3__111char_traitsIcE11eq_int_typeB8ue170006Eii, symObjAddr: 0x48E0, symBinAddr: 0x100005530, symSize: 0x20 }
  - { offsetInCU: 0x13BDF, offset: 0x13BDF, size: 0x8, addend: 0x0, symName: __ZNSt3__111char_traitsIcE3eofB8ue170006Ev, symObjAddr: 0x4900, symBinAddr: 0x100005550, symSize: 0x10 }
  - { offsetInCU: 0x13BF3, offset: 0x13BF3, size: 0x8, addend: 0x0, symName: __ZNKSt3__19basic_iosIcNS_11char_traitsIcEEE5widenB8ue170006Ec, symObjAddr: 0x4910, symBinAddr: 0x100005560, symSize: 0x90 }
  - { offsetInCU: 0x13C5C, offset: 0x13C5C, size: 0x8, addend: 0x0, symName: __ZNKSt3__15ctypeIcE5widenB8ue170006Ec, symObjAddr: 0x49D0, symBinAddr: 0x100005620, symSize: 0x30 }
  - { offsetInCU: 0x13C91, offset: 0x13C91, size: 0x8, addend: 0x0, symName: __ZNSt3__18ios_base8setstateB8ue170006Ej, symObjAddr: 0x4A00, symBinAddr: 0x100005650, symSize: 0x30 }
  - { offsetInCU: 0x13CC8, offset: 0x13CC8, size: 0x8, addend: 0x0, symName: __ZNSt3__15queueIiNS_5dequeIiNS_9allocatorIiEEEEEC2B8ue170006Ev, symObjAddr: 0x4A50, symBinAddr: 0x1000056A0, symSize: 0x20 }
  - { offsetInCU: 0x13CF2, offset: 0x13CF2, size: 0x8, addend: 0x0, symName: __ZNSt3__15dequeIiNS_9allocatorIiEEEC1B8ue170006Ev, symObjAddr: 0x4A70, symBinAddr: 0x1000056C0, symSize: 0x20 }
  - { offsetInCU: 0x13D1C, offset: 0x13D1C, size: 0x8, addend: 0x0, symName: __ZNSt3__15dequeIiNS_9allocatorIiEEEC2B8ue170006Ev, symObjAddr: 0x4A90, symBinAddr: 0x1000056E0, symSize: 0x90 }
  - { offsetInCU: 0x13D46, offset: 0x13D46, size: 0x8, addend: 0x0, symName: __ZNSt3__114__split_bufferIPiNS_9allocatorIS1_EEEC1B8ue170006Ev, symObjAddr: 0x4B20, symBinAddr: 0x100005770, symSize: 0x20 }
  - { offsetInCU: 0x13D70, offset: 0x13D70, size: 0x8, addend: 0x0, symName: __ZNSt3__117__compressed_pairImNS_9allocatorIiEEEC1B8ue170006IiNS_18__default_init_tagEEEOT_OT0_, symObjAddr: 0x4B40, symBinAddr: 0x100005790, symSize: 0x30 }
  - { offsetInCU: 0x13DC8, offset: 0x13DC8, size: 0x8, addend: 0x0, symName: __ZNSt3__114__split_bufferIPiNS_9allocatorIS1_EEEC2B8ue170006Ev, symObjAddr: 0x4B70, symBinAddr: 0x1000057C0, symSize: 0x50 }
  - { offsetInCU: 0x13DF2, offset: 0x13DF2, size: 0x8, addend: 0x0, symName: __ZNSt3__117__compressed_pairIPPiNS_9allocatorIS1_EEEC1B8ue170006IDnNS_18__default_init_tagEEEOT_OT0_, symObjAddr: 0x4BC0, symBinAddr: 0x100005810, symSize: 0x30 }
  - { offsetInCU: 0x13E4A, offset: 0x13E4A, size: 0x8, addend: 0x0, symName: __ZNSt3__117__compressed_pairIPPiNS_9allocatorIS1_EEEC2B8ue170006IDnNS_18__default_init_tagEEEOT_OT0_, symObjAddr: 0x4BF0, symBinAddr: 0x100005840, symSize: 0x40 }
  - { offsetInCU: 0x13EA2, offset: 0x13EA2, size: 0x8, addend: 0x0, symName: __ZNSt3__122__compressed_pair_elemIPPiLi0ELb0EEC2B8ue170006IDnvEEOT_, symObjAddr: 0x4C30, symBinAddr: 0x100005880, symSize: 0x20 }
  - { offsetInCU: 0x13EE4, offset: 0x13EE4, size: 0x8, addend: 0x0, symName: __ZNSt3__122__compressed_pair_elemINS_9allocatorIPiEELi1ELb1EEC2B8ue170006ENS_18__default_init_tagE, symObjAddr: 0x4C50, symBinAddr: 0x1000058A0, symSize: 0x20 }
  - { offsetInCU: 0x13F18, offset: 0x13F18, size: 0x8, addend: 0x0, symName: __ZNSt3__19allocatorIPiEC2B8ue170006Ev, symObjAddr: 0x4C70, symBinAddr: 0x1000058C0, symSize: 0x20 }
  - { offsetInCU: 0x13F42, offset: 0x13F42, size: 0x8, addend: 0x0, symName: __ZNSt3__116__non_trivial_ifILb1ENS_9allocatorIPiEEEC2B8ue170006Ev, symObjAddr: 0x4C90, symBinAddr: 0x1000058E0, symSize: 0x10 }
  - { offsetInCU: 0x13F6C, offset: 0x13F6C, size: 0x8, addend: 0x0, symName: __ZNSt3__117__compressed_pairImNS_9allocatorIiEEEC2B8ue170006IiNS_18__default_init_tagEEEOT_OT0_, symObjAddr: 0x4CA0, symBinAddr: 0x1000058F0, symSize: 0x40 }
  - { offsetInCU: 0x13FC4, offset: 0x13FC4, size: 0x8, addend: 0x0, symName: __ZNSt3__122__compressed_pair_elemImLi0ELb0EEC2B8ue170006IivEEOT_, symObjAddr: 0x4CE0, symBinAddr: 0x100005930, symSize: 0x20 }
  - { offsetInCU: 0x14006, offset: 0x14006, size: 0x8, addend: 0x0, symName: __ZNSt3__113unordered_setIiNS_4hashIiEENS_8equal_toIiEENS_9allocatorIiEEEC2B8ue170006Ev, symObjAddr: 0x4D00, symBinAddr: 0x100005950, symSize: 0x20 }
  - { offsetInCU: 0x14030, offset: 0x14030, size: 0x8, addend: 0x0, symName: __ZNSt3__112__hash_tableIiNS_4hashIiEENS_8equal_toIiEENS_9allocatorIiEEEC1Ev, symObjAddr: 0x4D20, symBinAddr: 0x100005970, symSize: 0x20 }
  - { offsetInCU: 0x1405C, offset: 0x1405C, size: 0x8, addend: 0x0, symName: __ZNSt3__112__hash_tableIiNS_4hashIiEENS_8equal_toIiEENS_9allocatorIiEEEC2Ev, symObjAddr: 0x4D40, symBinAddr: 0x100005990, symSize: 0xB0 }
  - { offsetInCU: 0x14088, offset: 0x14088, size: 0x8, addend: 0x0, symName: __ZNSt3__110unique_ptrIA_PNS_16__hash_node_baseIPNS_11__hash_nodeIiPvEEEENS_25__bucket_list_deallocatorINS_9allocatorIS7_EEEEEC1B8ue170006ILb1EvEEv, symObjAddr: 0x4DF0, symBinAddr: 0x100005A40, symSize: 0x20 }
  - { offsetInCU: 0x140BD, offset: 0x140BD, size: 0x8, addend: 0x0, symName: __ZNSt3__117__compressed_pairINS_16__hash_node_baseIPNS_11__hash_nodeIiPvEEEENS_9allocatorIS4_EEEC1B8ue170006ILb1EvEEv, symObjAddr: 0x4E10, symBinAddr: 0x100005A60, symSize: 0x20 }
  - { offsetInCU: 0x140F2, offset: 0x140F2, size: 0x8, addend: 0x0, symName: __ZNSt3__117__compressed_pairImNS_4hashIiEEEC1B8ue170006IiNS_18__default_init_tagEEEOT_OT0_, symObjAddr: 0x4E30, symBinAddr: 0x100005A80, symSize: 0x30 }
  - { offsetInCU: 0x1414F, offset: 0x1414F, size: 0x8, addend: 0x0, symName: __ZNSt3__117__compressed_pairIfNS_8equal_toIiEEEC1B8ue170006IfNS_18__default_init_tagEEEOT_OT0_, symObjAddr: 0x4E60, symBinAddr: 0x100005AB0, symSize: 0x30 }
  - { offsetInCU: 0x141A7, offset: 0x141A7, size: 0x8, addend: 0x0, symName: __ZNSt3__110unique_ptrIA_PNS_16__hash_node_baseIPNS_11__hash_nodeIiPvEEEENS_25__bucket_list_deallocatorINS_9allocatorIS7_EEEEED1B8ue170006Ev, symObjAddr: 0x4E90, symBinAddr: 0x100005AE0, symSize: 0x20 }
  - { offsetInCU: 0x141D1, offset: 0x141D1, size: 0x8, addend: 0x0, symName: __ZNSt3__110unique_ptrIA_PNS_16__hash_node_baseIPNS_11__hash_nodeIiPvEEEENS_25__bucket_list_deallocatorINS_9allocatorIS7_EEEEEC2B8ue170006ILb1EvEEv, symObjAddr: 0x4EB0, symBinAddr: 0x100005B00, symSize: 0x40 }
  - { offsetInCU: 0x1420B, offset: 0x1420B, size: 0x8, addend: 0x0, symName: __ZNSt3__117__compressed_pairIPPNS_16__hash_node_baseIPNS_11__hash_nodeIiPvEEEENS_25__bucket_list_deallocatorINS_9allocatorIS7_EEEEEC1B8ue170006INS_16__value_init_tagESF_EEOT_OT0_, symObjAddr: 0x4EF0, symBinAddr: 0x100005B40, symSize: 0x30 }
  - { offsetInCU: 0x14263, offset: 0x14263, size: 0x8, addend: 0x0, symName: __ZNSt3__117__compressed_pairIPPNS_16__hash_node_baseIPNS_11__hash_nodeIiPvEEEENS_25__bucket_list_deallocatorINS_9allocatorIS7_EEEEEC2B8ue170006INS_16__value_init_tagESF_EEOT_OT0_, symObjAddr: 0x4F20, symBinAddr: 0x100005B70, symSize: 0x40 }
  - { offsetInCU: 0x142BB, offset: 0x142BB, size: 0x8, addend: 0x0, symName: __ZNSt3__122__compressed_pair_elemIPPNS_16__hash_node_baseIPNS_11__hash_nodeIiPvEEEELi0ELb0EEC2B8ue170006ENS_16__value_init_tagE, symObjAddr: 0x4F60, symBinAddr: 0x100005BB0, symSize: 0x20 }
  - { offsetInCU: 0x142EF, offset: 0x142EF, size: 0x8, addend: 0x0, symName: __ZNSt3__122__compressed_pair_elemINS_25__bucket_list_deallocatorINS_9allocatorIPNS_16__hash_node_baseIPNS_11__hash_nodeIiPvEEEEEEEELi1ELb0EEC2B8ue170006ENS_16__value_init_tagE, symObjAddr: 0x4F80, symBinAddr: 0x100005BD0, symSize: 0x20 }
  - { offsetInCU: 0x14323, offset: 0x14323, size: 0x8, addend: 0x0, symName: __ZNSt3__125__bucket_list_deallocatorINS_9allocatorIPNS_16__hash_node_baseIPNS_11__hash_nodeIiPvEEEEEEEC1B8ue170006Ev, symObjAddr: 0x4FA0, symBinAddr: 0x100005BF0, symSize: 0x20 }
  - { offsetInCU: 0x1434D, offset: 0x1434D, size: 0x8, addend: 0x0, symName: __ZNSt3__125__bucket_list_deallocatorINS_9allocatorIPNS_16__hash_node_baseIPNS_11__hash_nodeIiPvEEEEEEEC2B8ue170006Ev, symObjAddr: 0x4FC0, symBinAddr: 0x100005C10, symSize: 0x30 }
  - { offsetInCU: 0x14377, offset: 0x14377, size: 0x8, addend: 0x0, symName: __ZNSt3__117__compressed_pairImNS_9allocatorIPNS_16__hash_node_baseIPNS_11__hash_nodeIiPvEEEEEEEC1B8ue170006IiNS_18__default_init_tagEEEOT_OT0_, symObjAddr: 0x4FF0, symBinAddr: 0x100005C40, symSize: 0x30 }
  - { offsetInCU: 0x143CF, offset: 0x143CF, size: 0x8, addend: 0x0, symName: __ZNSt3__117__compressed_pairImNS_9allocatorIPNS_16__hash_node_baseIPNS_11__hash_nodeIiPvEEEEEEEC2B8ue170006IiNS_18__default_init_tagEEEOT_OT0_, symObjAddr: 0x5020, symBinAddr: 0x100005C70, symSize: 0x40 }
  - { offsetInCU: 0x14427, offset: 0x14427, size: 0x8, addend: 0x0, symName: __ZNSt3__122__compressed_pair_elemINS_9allocatorIPNS_16__hash_node_baseIPNS_11__hash_nodeIiPvEEEEEELi1ELb1EEC2B8ue170006ENS_18__default_init_tagE, symObjAddr: 0x5060, symBinAddr: 0x100005CB0, symSize: 0x20 }
  - { offsetInCU: 0x1445B, offset: 0x1445B, size: 0x8, addend: 0x0, symName: __ZNSt3__19allocatorIPNS_16__hash_node_baseIPNS_11__hash_nodeIiPvEEEEEC2B8ue170006Ev, symObjAddr: 0x5080, symBinAddr: 0x100005CD0, symSize: 0x20 }
  - { offsetInCU: 0x14485, offset: 0x14485, size: 0x8, addend: 0x0, symName: __ZNSt3__116__non_trivial_ifILb1ENS_9allocatorIPNS_16__hash_node_baseIPNS_11__hash_nodeIiPvEEEEEEEC2B8ue170006Ev, symObjAddr: 0x50A0, symBinAddr: 0x100005CF0, symSize: 0x10 }
  - { offsetInCU: 0x144AF, offset: 0x144AF, size: 0x8, addend: 0x0, symName: __ZNSt3__117__compressed_pairINS_16__hash_node_baseIPNS_11__hash_nodeIiPvEEEENS_9allocatorIS4_EEEC2B8ue170006ILb1EvEEv, symObjAddr: 0x50B0, symBinAddr: 0x100005D00, symSize: 0x30 }
  - { offsetInCU: 0x144E4, offset: 0x144E4, size: 0x8, addend: 0x0, symName: __ZNSt3__122__compressed_pair_elemINS_16__hash_node_baseIPNS_11__hash_nodeIiPvEEEELi0ELb0EEC2B8ue170006ENS_16__value_init_tagE, symObjAddr: 0x50E0, symBinAddr: 0x100005D30, symSize: 0x20 }
  - { offsetInCU: 0x14518, offset: 0x14518, size: 0x8, addend: 0x0, symName: __ZNSt3__122__compressed_pair_elemINS_9allocatorINS_11__hash_nodeIiPvEEEELi1ELb1EEC2B8ue170006ENS_16__value_init_tagE, symObjAddr: 0x5100, symBinAddr: 0x100005D50, symSize: 0x20 }
  - { offsetInCU: 0x1454C, offset: 0x1454C, size: 0x8, addend: 0x0, symName: __ZNSt3__116__hash_node_baseIPNS_11__hash_nodeIiPvEEEC1B8ue170006Ev, symObjAddr: 0x5120, symBinAddr: 0x100005D70, symSize: 0x20 }
  - { offsetInCU: 0x14576, offset: 0x14576, size: 0x8, addend: 0x0, symName: __ZNSt3__116__hash_node_baseIPNS_11__hash_nodeIiPvEEEC2B8ue170006Ev, symObjAddr: 0x5140, symBinAddr: 0x100005D90, symSize: 0x20 }
  - { offsetInCU: 0x145A0, offset: 0x145A0, size: 0x8, addend: 0x0, symName: __ZNSt3__19allocatorINS_11__hash_nodeIiPvEEEC2B8ue170006Ev, symObjAddr: 0x5160, symBinAddr: 0x100005DB0, symSize: 0x20 }
  - { offsetInCU: 0x145CA, offset: 0x145CA, size: 0x8, addend: 0x0, symName: __ZNSt3__116__non_trivial_ifILb1ENS_9allocatorINS_11__hash_nodeIiPvEEEEEC2B8ue170006Ev, symObjAddr: 0x5180, symBinAddr: 0x100005DD0, symSize: 0x10 }
  - { offsetInCU: 0x145F4, offset: 0x145F4, size: 0x8, addend: 0x0, symName: __ZNSt3__117__compressed_pairImNS_4hashIiEEEC2B8ue170006IiNS_18__default_init_tagEEEOT_OT0_, symObjAddr: 0x5190, symBinAddr: 0x100005DE0, symSize: 0x40 }
  - { offsetInCU: 0x1464C, offset: 0x1464C, size: 0x8, addend: 0x0, symName: __ZNSt3__122__compressed_pair_elemINS_4hashIiEELi1ELb1EEC2B8ue170006ENS_18__default_init_tagE, symObjAddr: 0x51D0, symBinAddr: 0x100005E20, symSize: 0x10 }
  - { offsetInCU: 0x14680, offset: 0x14680, size: 0x8, addend: 0x0, symName: __ZNSt3__117__compressed_pairIfNS_8equal_toIiEEEC2B8ue170006IfNS_18__default_init_tagEEEOT_OT0_, symObjAddr: 0x51E0, symBinAddr: 0x100005E30, symSize: 0x40 }
  - { offsetInCU: 0x146D8, offset: 0x146D8, size: 0x8, addend: 0x0, symName: __ZNSt3__122__compressed_pair_elemIfLi0ELb0EEC2B8ue170006IfvEEOT_, symObjAddr: 0x5220, symBinAddr: 0x100005E70, symSize: 0x20 }
  - { offsetInCU: 0x1471A, offset: 0x1471A, size: 0x8, addend: 0x0, symName: __ZNSt3__122__compressed_pair_elemINS_8equal_toIiEELi1ELb1EEC2B8ue170006ENS_18__default_init_tagE, symObjAddr: 0x5240, symBinAddr: 0x100005E90, symSize: 0x10 }
  - { offsetInCU: 0x1474E, offset: 0x1474E, size: 0x8, addend: 0x0, symName: __ZNSt3__110unique_ptrIA_PNS_16__hash_node_baseIPNS_11__hash_nodeIiPvEEEENS_25__bucket_list_deallocatorINS_9allocatorIS7_EEEEED2B8ue170006Ev, symObjAddr: 0x5250, symBinAddr: 0x100005EA0, symSize: 0x20 }
  - { offsetInCU: 0x14778, offset: 0x14778, size: 0x8, addend: 0x0, symName: __ZNSt3__110unique_ptrIA_PNS_16__hash_node_baseIPNS_11__hash_nodeIiPvEEEENS_25__bucket_list_deallocatorINS_9allocatorIS7_EEEEE5resetB8ue170006EDn, symObjAddr: 0x5270, symBinAddr: 0x100005EC0, symSize: 0x60 }
  - { offsetInCU: 0x147B8, offset: 0x147B8, size: 0x8, addend: 0x0, symName: __ZNSt3__117__compressed_pairIPPNS_16__hash_node_baseIPNS_11__hash_nodeIiPvEEEENS_25__bucket_list_deallocatorINS_9allocatorIS7_EEEEE5firstB8ue170006Ev, symObjAddr: 0x52D0, symBinAddr: 0x100005F20, symSize: 0x20 }
  - { offsetInCU: 0x147DE, offset: 0x147DE, size: 0x8, addend: 0x0, symName: __ZNSt3__117__compressed_pairIPPNS_16__hash_node_baseIPNS_11__hash_nodeIiPvEEEENS_25__bucket_list_deallocatorINS_9allocatorIS7_EEEEE6secondB8ue170006Ev, symObjAddr: 0x52F0, symBinAddr: 0x100005F40, symSize: 0x20 }
  - { offsetInCU: 0x14804, offset: 0x14804, size: 0x8, addend: 0x0, symName: __ZNSt3__125__bucket_list_deallocatorINS_9allocatorIPNS_16__hash_node_baseIPNS_11__hash_nodeIiPvEEEEEEEclB8ue170006EPS8_, symObjAddr: 0x5310, symBinAddr: 0x100005F60, symSize: 0x50 }
  - { offsetInCU: 0x14839, offset: 0x14839, size: 0x8, addend: 0x0, symName: __ZNSt3__122__compressed_pair_elemIPPNS_16__hash_node_baseIPNS_11__hash_nodeIiPvEEEELi0ELb0EE5__getB8ue170006Ev, symObjAddr: 0x5360, symBinAddr: 0x100005FB0, symSize: 0x10 }
  - { offsetInCU: 0x1485F, offset: 0x1485F, size: 0x8, addend: 0x0, symName: __ZNSt3__122__compressed_pair_elemINS_25__bucket_list_deallocatorINS_9allocatorIPNS_16__hash_node_baseIPNS_11__hash_nodeIiPvEEEEEEEELi1ELb0EE5__getB8ue170006Ev, symObjAddr: 0x5370, symBinAddr: 0x100005FC0, symSize: 0x10 }
  - { offsetInCU: 0x14885, offset: 0x14885, size: 0x8, addend: 0x0, symName: __ZNSt3__116allocator_traitsINS_9allocatorIPNS_16__hash_node_baseIPNS_11__hash_nodeIiPvEEEEEEE10deallocateB8ue170006ERS9_PS8_m, symObjAddr: 0x5380, symBinAddr: 0x100005FD0, symSize: 0x30 }
  - { offsetInCU: 0x148C7, offset: 0x148C7, size: 0x8, addend: 0x0, symName: __ZNSt3__125__bucket_list_deallocatorINS_9allocatorIPNS_16__hash_node_baseIPNS_11__hash_nodeIiPvEEEEEEE7__allocB8ue170006Ev, symObjAddr: 0x53B0, symBinAddr: 0x100006000, symSize: 0x20 }
  - { offsetInCU: 0x148ED, offset: 0x148ED, size: 0x8, addend: 0x0, symName: __ZNSt3__125__bucket_list_deallocatorINS_9allocatorIPNS_16__hash_node_baseIPNS_11__hash_nodeIiPvEEEEEEE4sizeB8ue170006Ev, symObjAddr: 0x53D0, symBinAddr: 0x100006020, symSize: 0x20 }
  - { offsetInCU: 0x14913, offset: 0x14913, size: 0x8, addend: 0x0, symName: __ZNSt3__19allocatorIPNS_16__hash_node_baseIPNS_11__hash_nodeIiPvEEEEE10deallocateB8ue170006EPS7_m, symObjAddr: 0x53F0, symBinAddr: 0x100006040, symSize: 0x70 }
  - { offsetInCU: 0x14955, offset: 0x14955, size: 0x8, addend: 0x0, symName: __ZNSt3__117__compressed_pairImNS_9allocatorIPNS_16__hash_node_baseIPNS_11__hash_nodeIiPvEEEEEEE6secondB8ue170006Ev, symObjAddr: 0x5460, symBinAddr: 0x1000060B0, symSize: 0x20 }
  - { offsetInCU: 0x1497B, offset: 0x1497B, size: 0x8, addend: 0x0, symName: __ZNSt3__122__compressed_pair_elemINS_9allocatorIPNS_16__hash_node_baseIPNS_11__hash_nodeIiPvEEEEEELi1ELb1EE5__getB8ue170006Ev, symObjAddr: 0x5480, symBinAddr: 0x1000060D0, symSize: 0x10 }
  - { offsetInCU: 0x149A1, offset: 0x149A1, size: 0x8, addend: 0x0, symName: __ZNSt3__117__compressed_pairImNS_9allocatorIPNS_16__hash_node_baseIPNS_11__hash_nodeIiPvEEEEEEE5firstB8ue170006Ev, symObjAddr: 0x5490, symBinAddr: 0x1000060E0, symSize: 0x20 }
  - { offsetInCU: 0x149C7, offset: 0x149C7, size: 0x8, addend: 0x0, symName: __ZNSt3__113unordered_setIiNS_4hashIiEENS_8equal_toIiEENS_9allocatorIiEEED2B8ue170006Ev, symObjAddr: 0x54B0, symBinAddr: 0x100006100, symSize: 0x20 }
  - { offsetInCU: 0x149F1, offset: 0x149F1, size: 0x8, addend: 0x0, symName: __ZNSt3__112__hash_tableIiNS_4hashIiEENS_8equal_toIiEENS_9allocatorIiEEED1Ev, symObjAddr: 0x54D0, symBinAddr: 0x100006120, symSize: 0x20 }
  - { offsetInCU: 0x14A1D, offset: 0x14A1D, size: 0x8, addend: 0x0, symName: __ZNSt3__112__hash_tableIiNS_4hashIiEENS_8equal_toIiEENS_9allocatorIiEEED2Ev, symObjAddr: 0x54F0, symBinAddr: 0x100006140, symSize: 0x40 }
  - { offsetInCU: 0x14A49, offset: 0x14A49, size: 0x8, addend: 0x0, symName: __ZNSt3__112__hash_tableIiNS_4hashIiEENS_8equal_toIiEENS_9allocatorIiEEE17__deallocate_nodeEPNS_16__hash_node_baseIPNS_11__hash_nodeIiPvEEEE, symObjAddr: 0x5530, symBinAddr: 0x100006180, symSize: 0xB0 }
  - { offsetInCU: 0x14AB3, offset: 0x14AB3, size: 0x8, addend: 0x0, symName: __ZNSt3__117__compressed_pairINS_16__hash_node_baseIPNS_11__hash_nodeIiPvEEEENS_9allocatorIS4_EEE5firstB8ue170006Ev, symObjAddr: 0x55E0, symBinAddr: 0x100006230, symSize: 0x20 }
  - { offsetInCU: 0x14AD9, offset: 0x14AD9, size: 0x8, addend: 0x0, symName: __ZNSt3__112__hash_tableIiNS_4hashIiEENS_8equal_toIiEENS_9allocatorIiEEE12__node_allocB8ue170006Ev, symObjAddr: 0x5600, symBinAddr: 0x100006250, symSize: 0x20 }
  - { offsetInCU: 0x14AFF, offset: 0x14AFF, size: 0x8, addend: 0x0, symName: __ZNSt3__116__hash_node_baseIPNS_11__hash_nodeIiPvEEE8__upcastB8ue170006Ev, symObjAddr: 0x5620, symBinAddr: 0x100006270, symSize: 0x20 }
  - { offsetInCU: 0x14B25, offset: 0x14B25, size: 0x8, addend: 0x0, symName: __ZNSt3__116allocator_traitsINS_9allocatorINS_11__hash_nodeIiPvEEEEE7destroyB8ue170006IivvEEvRS5_PT_, symObjAddr: 0x5640, symBinAddr: 0x100006290, symSize: 0x10 }
  - { offsetInCU: 0x14B5F, offset: 0x14B5F, size: 0x8, addend: 0x0, symName: __ZNSt3__122__hash_key_value_typesIiE9__get_ptrB8ue170006ERi, symObjAddr: 0x5650, symBinAddr: 0x1000062A0, symSize: 0x10 }
  - { offsetInCU: 0x14B82, offset: 0x14B82, size: 0x8, addend: 0x0, symName: __ZNSt3__116allocator_traitsINS_9allocatorINS_11__hash_nodeIiPvEEEEE10deallocateB8ue170006ERS5_PS4_m, symObjAddr: 0x5660, symBinAddr: 0x1000062B0, symSize: 0x30 }
  - { offsetInCU: 0x14BC4, offset: 0x14BC4, size: 0x8, addend: 0x0, symName: __ZNSt3__117__compressed_pairINS_16__hash_node_baseIPNS_11__hash_nodeIiPvEEEENS_9allocatorIS4_EEE6secondB8ue170006Ev, symObjAddr: 0x5690, symBinAddr: 0x1000062E0, symSize: 0x20 }
  - { offsetInCU: 0x14BEA, offset: 0x14BEA, size: 0x8, addend: 0x0, symName: __ZNSt3__122__compressed_pair_elemINS_9allocatorINS_11__hash_nodeIiPvEEEELi1ELb1EE5__getB8ue170006Ev, symObjAddr: 0x56B0, symBinAddr: 0x100006300, symSize: 0x10 }
  - { offsetInCU: 0x14C10, offset: 0x14C10, size: 0x8, addend: 0x0, symName: __ZNSt3__114pointer_traitsIPNS_16__hash_node_baseIPNS_11__hash_nodeIiPvEEEEE10pointer_toB8ue170006ERS6_, symObjAddr: 0x56C0, symBinAddr: 0x100006310, symSize: 0x10 }
  - { offsetInCU: 0x14C33, offset: 0x14C33, size: 0x8, addend: 0x0, symName: __ZNSt3__19allocatorINS_11__hash_nodeIiPvEEE10deallocateB8ue170006EPS3_m, symObjAddr: 0x56D0, symBinAddr: 0x100006320, symSize: 0x80 }
  - { offsetInCU: 0x14C75, offset: 0x14C75, size: 0x8, addend: 0x0, symName: __ZNSt3__122__compressed_pair_elemINS_16__hash_node_baseIPNS_11__hash_nodeIiPvEEEELi0ELb0EE5__getB8ue170006Ev, symObjAddr: 0x5750, symBinAddr: 0x1000063A0, symSize: 0x10 }
  - { offsetInCU: 0x14C9B, offset: 0x14C9B, size: 0x8, addend: 0x0, symName: __ZNSt3__112__hash_tableIiNS_4hashIiEENS_8equal_toIiEENS_9allocatorIiEEE4findIiEENS_15__hash_iteratorIPNS_11__hash_nodeIiPvEEEERKT_, symObjAddr: 0x5760, symBinAddr: 0x1000063B0, symSize: 0x180 }
  - { offsetInCU: 0x14D26, offset: 0x14D26, size: 0x8, addend: 0x0, symName: __ZNSt3__121__hash_const_iteratorIPNS_11__hash_nodeIiPvEEEC1B8ue170006ERKNS_15__hash_iteratorIS4_EE, symObjAddr: 0x58E0, symBinAddr: 0x100006530, symSize: 0x30 }
  - { offsetInCU: 0x14D5F, offset: 0x14D5F, size: 0x8, addend: 0x0, symName: __ZNSt3__112__hash_tableIiNS_4hashIiEENS_8equal_toIiEENS_9allocatorIiEEE13hash_functionB8ue170006Ev, symObjAddr: 0x5910, symBinAddr: 0x100006560, symSize: 0x20 }
  - { offsetInCU: 0x14D85, offset: 0x14D85, size: 0x8, addend: 0x0, symName: __ZNKSt3__14hashIiEclB8ue170006Ei, symObjAddr: 0x5930, symBinAddr: 0x100006580, symSize: 0x20 }
  - { offsetInCU: 0x14DBA, offset: 0x14DBA, size: 0x8, addend: 0x0, symName: __ZNKSt3__112__hash_tableIiNS_4hashIiEENS_8equal_toIiEENS_9allocatorIiEEE12bucket_countB8ue170006Ev, symObjAddr: 0x5950, symBinAddr: 0x1000065A0, symSize: 0x30 }
  - { offsetInCU: 0x14DE0, offset: 0x14DE0, size: 0x8, addend: 0x0, symName: __ZNKSt3__110unique_ptrIA_PNS_16__hash_node_baseIPNS_11__hash_nodeIiPvEEEENS_25__bucket_list_deallocatorINS_9allocatorIS7_EEEEEixB8ue170006Em, symObjAddr: 0x5A00, symBinAddr: 0x100006650, symSize: 0x30 }
  - { offsetInCU: 0x14E15, offset: 0x14E15, size: 0x8, addend: 0x0, symName: __ZNKSt3__116__hash_node_baseIPNS_11__hash_nodeIiPvEEE6__hashB8ue170006Ev, symObjAddr: 0x5A30, symBinAddr: 0x100006680, symSize: 0x20 }
  - { offsetInCU: 0x14E3B, offset: 0x14E3B, size: 0x8, addend: 0x0, symName: __ZNSt3__112__hash_tableIiNS_4hashIiEENS_8equal_toIiEENS_9allocatorIiEEE6key_eqB8ue170006Ev, symObjAddr: 0x5A50, symBinAddr: 0x1000066A0, symSize: 0x20 }
  - { offsetInCU: 0x14E61, offset: 0x14E61, size: 0x8, addend: 0x0, symName: __ZNKSt3__18equal_toIiEclB8ue170006ERKiS3_, symObjAddr: 0x5A70, symBinAddr: 0x1000066C0, symSize: 0x30 }
  - { offsetInCU: 0x14EA5, offset: 0x14EA5, size: 0x8, addend: 0x0, symName: __ZNSt3__115__hash_iteratorIPNS_11__hash_nodeIiPvEEEC1B8ue170006EPNS_16__hash_node_baseIS4_EE, symObjAddr: 0x5AA0, symBinAddr: 0x1000066F0, symSize: 0x30 }
  - { offsetInCU: 0x14EDE, offset: 0x14EDE, size: 0x8, addend: 0x0, symName: __ZNSt3__112__hash_tableIiNS_4hashIiEENS_8equal_toIiEENS_9allocatorIiEEE3endEv, symObjAddr: 0x5AD0, symBinAddr: 0x100006720, symSize: 0x30 }
  - { offsetInCU: 0x14F06, offset: 0x14F06, size: 0x8, addend: 0x0, symName: __ZNSt3__117__compressed_pairImNS_4hashIiEEE6secondB8ue170006Ev, symObjAddr: 0x5B00, symBinAddr: 0x100006750, symSize: 0x20 }
  - { offsetInCU: 0x14F2C, offset: 0x14F2C, size: 0x8, addend: 0x0, symName: __ZNSt3__122__compressed_pair_elemINS_4hashIiEELi1ELb1EE5__getB8ue170006Ev, symObjAddr: 0x5B20, symBinAddr: 0x100006770, symSize: 0x10 }
  - { offsetInCU: 0x14F52, offset: 0x14F52, size: 0x8, addend: 0x0, symName: __ZNKSt3__110unique_ptrIA_PNS_16__hash_node_baseIPNS_11__hash_nodeIiPvEEEENS_25__bucket_list_deallocatorINS_9allocatorIS7_EEEEE11get_deleterB8ue170006Ev, symObjAddr: 0x5B30, symBinAddr: 0x100006780, symSize: 0x20 }
  - { offsetInCU: 0x14F78, offset: 0x14F78, size: 0x8, addend: 0x0, symName: __ZNKSt3__125__bucket_list_deallocatorINS_9allocatorIPNS_16__hash_node_baseIPNS_11__hash_nodeIiPvEEEEEEE4sizeB8ue170006Ev, symObjAddr: 0x5B50, symBinAddr: 0x1000067A0, symSize: 0x20 }
  - { offsetInCU: 0x14F9E, offset: 0x14F9E, size: 0x8, addend: 0x0, symName: __ZNKSt3__117__compressed_pairIPPNS_16__hash_node_baseIPNS_11__hash_nodeIiPvEEEENS_25__bucket_list_deallocatorINS_9allocatorIS7_EEEEE6secondB8ue170006Ev, symObjAddr: 0x5B70, symBinAddr: 0x1000067C0, symSize: 0x20 }
  - { offsetInCU: 0x14FC4, offset: 0x14FC4, size: 0x8, addend: 0x0, symName: __ZNKSt3__122__compressed_pair_elemINS_25__bucket_list_deallocatorINS_9allocatorIPNS_16__hash_node_baseIPNS_11__hash_nodeIiPvEEEEEEEELi1ELb0EE5__getB8ue170006Ev, symObjAddr: 0x5B90, symBinAddr: 0x1000067E0, symSize: 0x10 }
  - { offsetInCU: 0x14FEA, offset: 0x14FEA, size: 0x8, addend: 0x0, symName: __ZNKSt3__117__compressed_pairImNS_9allocatorIPNS_16__hash_node_baseIPNS_11__hash_nodeIiPvEEEEEEE5firstB8ue170006Ev, symObjAddr: 0x5BA0, symBinAddr: 0x1000067F0, symSize: 0x20 }
  - { offsetInCU: 0x15010, offset: 0x15010, size: 0x8, addend: 0x0, symName: __ZNKSt3__117__compressed_pairIPPNS_16__hash_node_baseIPNS_11__hash_nodeIiPvEEEENS_25__bucket_list_deallocatorINS_9allocatorIS7_EEEEE5firstB8ue170006Ev, symObjAddr: 0x5BC0, symBinAddr: 0x100006810, symSize: 0x20 }
  - { offsetInCU: 0x15036, offset: 0x15036, size: 0x8, addend: 0x0, symName: __ZNKSt3__122__compressed_pair_elemIPPNS_16__hash_node_baseIPNS_11__hash_nodeIiPvEEEELi0ELb0EE5__getB8ue170006Ev, symObjAddr: 0x5BE0, symBinAddr: 0x100006830, symSize: 0x10 }
  - { offsetInCU: 0x1505C, offset: 0x1505C, size: 0x8, addend: 0x0, symName: __ZNSt3__117__compressed_pairIfNS_8equal_toIiEEE6secondB8ue170006Ev, symObjAddr: 0x5BF0, symBinAddr: 0x100006840, symSize: 0x20 }
  - { offsetInCU: 0x15082, offset: 0x15082, size: 0x8, addend: 0x0, symName: __ZNSt3__122__compressed_pair_elemINS_8equal_toIiEELi1ELb1EE5__getB8ue170006Ev, symObjAddr: 0x5C10, symBinAddr: 0x100006860, symSize: 0x10 }
  - { offsetInCU: 0x150A8, offset: 0x150A8, size: 0x8, addend: 0x0, symName: __ZNSt3__115__hash_iteratorIPNS_11__hash_nodeIiPvEEEC2B8ue170006EPNS_16__hash_node_baseIS4_EE, symObjAddr: 0x5C20, symBinAddr: 0x100006870, symSize: 0x20 }
  - { offsetInCU: 0x150E1, offset: 0x150E1, size: 0x8, addend: 0x0, symName: __ZNSt3__121__hash_const_iteratorIPNS_11__hash_nodeIiPvEEEC2B8ue170006ERKNS_15__hash_iteratorIS4_EE, symObjAddr: 0x5C40, symBinAddr: 0x100006890, symSize: 0x20 }
  - { offsetInCU: 0x1511A, offset: 0x1511A, size: 0x8, addend: 0x0, symName: __ZNSt3__15queueIiNS_5dequeIiNS_9allocatorIiEEEEEC2B8ue170006ERKS5_, symObjAddr: 0x5C90, symBinAddr: 0x1000068E0, symSize: 0x30 }
  - { offsetInCU: 0x15153, offset: 0x15153, size: 0x8, addend: 0x0, symName: __ZNSt3__15dequeIiNS_9allocatorIiEEEC1ERKS3_, symObjAddr: 0x5CC0, symBinAddr: 0x100006910, symSize: 0x30 }
  - { offsetInCU: 0x1518E, offset: 0x1518E, size: 0x8, addend: 0x0, symName: __ZNSt3__15dequeIiNS_9allocatorIiEEEC2ERKS3_, symObjAddr: 0x5CF0, symBinAddr: 0x100006940, symSize: 0x120 }
  - { offsetInCU: 0x151C9, offset: 0x151C9, size: 0x8, addend: 0x0, symName: __ZNSt3__116allocator_traitsINS_9allocatorIiEEE37select_on_container_copy_constructionB8ue170006IS2_vvEES2_RKS2_, symObjAddr: 0x5E10, symBinAddr: 0x100006A60, symSize: 0x10 }
  - { offsetInCU: 0x151F8, offset: 0x151F8, size: 0x8, addend: 0x0, symName: __ZNKSt3__15dequeIiNS_9allocatorIiEEE7__allocB8ue170006Ev, symObjAddr: 0x5E20, symBinAddr: 0x100006A70, symSize: 0x20 }
  - { offsetInCU: 0x1521E, offset: 0x1521E, size: 0x8, addend: 0x0, symName: __ZNSt3__19allocatorIPiEC1B8ue170006IiEERKNS0_IT_EE, symObjAddr: 0x5E40, symBinAddr: 0x100006A90, symSize: 0x30 }
  - { offsetInCU: 0x1525B, offset: 0x1525B, size: 0x8, addend: 0x0, symName: __ZNSt3__114__split_bufferIPiNS_9allocatorIS1_EEEC1B8ue170006ERKS3_, symObjAddr: 0x5E70, symBinAddr: 0x100006AC0, symSize: 0x30 }
  - { offsetInCU: 0x15293, offset: 0x15293, size: 0x8, addend: 0x0, symName: __ZNSt3__117__compressed_pairImNS_9allocatorIiEEEC1B8ue170006IiRNS1_IPiEEEEOT_OT0_, symObjAddr: 0x5EA0, symBinAddr: 0x100006AF0, symSize: 0x30 }
  - { offsetInCU: 0x152F0, offset: 0x152F0, size: 0x8, addend: 0x0, symName: __ZNSt3__15dequeIiNS_9allocatorIiEEE8__appendINS_16__deque_iteratorIiPKiRS6_PKS7_lLl1024EEEEEvT_SC_PNS_9enable_ifIXsr31__has_forward_iterator_categoryISC_EE5valueEvE4typeE, symObjAddr: 0x5ED0, symBinAddr: 0x100006B20, symSize: 0x90 }
  - { offsetInCU: 0x1534A, offset: 0x1534A, size: 0x8, addend: 0x0, symName: __ZNKSt3__15dequeIiNS_9allocatorIiEEE5beginB8ue170006Ev, symObjAddr: 0x5F60, symBinAddr: 0x100006BB0, symSize: 0xA0 }
  - { offsetInCU: 0x1537F, offset: 0x1537F, size: 0x8, addend: 0x0, symName: __ZNKSt3__15dequeIiNS_9allocatorIiEEE3endB8ue170006Ev, symObjAddr: 0x6000, symBinAddr: 0x100006C50, symSize: 0xB0 }
  - { offsetInCU: 0x153C3, offset: 0x153C3, size: 0x8, addend: 0x0, symName: __ZNKSt3__117__compressed_pairImNS_9allocatorIiEEE6secondB8ue170006Ev, symObjAddr: 0x60B0, symBinAddr: 0x100006D00, symSize: 0x20 }
  - { offsetInCU: 0x153E9, offset: 0x153E9, size: 0x8, addend: 0x0, symName: __ZNSt3__19allocatorIPiEC2B8ue170006IiEERKNS0_IT_EE, symObjAddr: 0x60D0, symBinAddr: 0x100006D20, symSize: 0x20 }
  - { offsetInCU: 0x15426, offset: 0x15426, size: 0x8, addend: 0x0, symName: __ZNSt3__114__split_bufferIPiNS_9allocatorIS1_EEEC2B8ue170006ERKS3_, symObjAddr: 0x60F0, symBinAddr: 0x100006D40, symSize: 0x50 }
  - { offsetInCU: 0x1545E, offset: 0x1545E, size: 0x8, addend: 0x0, symName: __ZNSt3__117__compressed_pairIPPiNS_9allocatorIS1_EEEC1B8ue170006IDnRKS4_EEOT_OT0_, symObjAddr: 0x6140, symBinAddr: 0x100006D90, symSize: 0x30 }
  - { offsetInCU: 0x154B6, offset: 0x154B6, size: 0x8, addend: 0x0, symName: __ZNSt3__117__compressed_pairIPPiNS_9allocatorIS1_EEEC2B8ue170006IDnRKS4_EEOT_OT0_, symObjAddr: 0x6170, symBinAddr: 0x100006DC0, symSize: 0x40 }
  - { offsetInCU: 0x1550E, offset: 0x1550E, size: 0x8, addend: 0x0, symName: __ZNSt3__122__compressed_pair_elemINS_9allocatorIPiEELi1ELb1EEC2B8ue170006IRKS3_vEEOT_, symObjAddr: 0x61B0, symBinAddr: 0x100006E00, symSize: 0x10 }
  - { offsetInCU: 0x15550, offset: 0x15550, size: 0x8, addend: 0x0, symName: __ZNSt3__117__compressed_pairImNS_9allocatorIiEEEC2B8ue170006IiRNS1_IPiEEEEOT_OT0_, symObjAddr: 0x61C0, symBinAddr: 0x100006E10, symSize: 0x40 }
  - { offsetInCU: 0x155A8, offset: 0x155A8, size: 0x8, addend: 0x0, symName: __ZNSt3__122__compressed_pair_elemINS_9allocatorIiEELi1ELb1EEC2B8ue170006IRNS1_IPiEEvEEOT_, symObjAddr: 0x6200, symBinAddr: 0x100006E50, symSize: 0x30 }
  - { offsetInCU: 0x155EA, offset: 0x155EA, size: 0x8, addend: 0x0, symName: __ZNSt3__19allocatorIiEC2B8ue170006IPiEERKNS0_IT_EE, symObjAddr: 0x6230, symBinAddr: 0x100006E80, symSize: 0x20 }
  - { offsetInCU: 0x15627, offset: 0x15627, size: 0x8, addend: 0x0, symName: __ZNSt3__15dequeIiNS_9allocatorIiEEE18__append_with_sizeB8ue170006INS_16__deque_iteratorIiPKiRS6_PKS7_lLl1024EEEEEvT_m, symObjAddr: 0x6250, symBinAddr: 0x100006EA0, symSize: 0x240 }
  - { offsetInCU: 0x156F8, offset: 0x156F8, size: 0x8, addend: 0x0, symName: __ZNKSt3__15dequeIiNS_9allocatorIiEEE12__back_spareB8ue170006Ev, symObjAddr: 0x64F0, symBinAddr: 0x100007140, symSize: 0x50 }
  - { offsetInCU: 0x1571E, offset: 0x1571E, size: 0x8, addend: 0x0, symName: __ZNSt3__15dequeIiNS_9allocatorIiEEE19__add_back_capacityEm, symObjAddr: 0x6540, symBinAddr: 0x100007190, symSize: 0x6A0 }
  - { offsetInCU: 0x15823, offset: 0x15823, size: 0x8, addend: 0x0, symName: __ZNKSt3__15dequeIiNS_9allocatorIiEEE24__annotate_increase_backB8ue170006Em, symObjAddr: 0x6BE0, symBinAddr: 0x100007830, symSize: 0x70 }
  - { offsetInCU: 0x15858, offset: 0x15858, size: 0x8, addend: 0x0, symName: __ZNKSt3__116__deque_iteratorIiPiRiPS1_lLl1024EEplB8ue170006El, symObjAddr: 0x6C50, symBinAddr: 0x1000078A0, symSize: 0x40 }
  - { offsetInCU: 0x158BF, offset: 0x158BF, size: 0x8, addend: 0x0, symName: __ZNSt3__15dequeIiNS_9allocatorIiEEE13__deque_rangeC1B8ue170006ENS_16__deque_iteratorIiPiRiPS6_lLl1024EEES9_, symObjAddr: 0x6C90, symBinAddr: 0x1000078E0, symSize: 0x40 }
  - { offsetInCU: 0x15907, offset: 0x15907, size: 0x8, addend: 0x0, symName: __ZNKSt3__15dequeIiNS_9allocatorIiEEE13__deque_range5beginB8ue170006Ev, symObjAddr: 0x6CD0, symBinAddr: 0x100007920, symSize: 0x30 }
  - { offsetInCU: 0x1592D, offset: 0x1592D, size: 0x8, addend: 0x0, symName: __ZNKSt3__15dequeIiNS_9allocatorIiEEE13__deque_range3endB8ue170006Ev, symObjAddr: 0x6D00, symBinAddr: 0x100007950, symSize: 0x60 }
  - { offsetInCU: 0x15953, offset: 0x15953, size: 0x8, addend: 0x0, symName: __ZNKSt3__15dequeIiNS_9allocatorIiEEE13__deque_rangedeB8ue170006Ev, symObjAddr: 0x6D90, symBinAddr: 0x1000079E0, symSize: 0x70 }
  - { offsetInCU: 0x1598D, offset: 0x1598D, size: 0x8, addend: 0x0, symName: __ZNSt3__15dequeIiNS_9allocatorIiEEE21_ConstructTransactionC1B8ue170006EPS3_RNS3_19__deque_block_rangeE, symObjAddr: 0x6E00, symBinAddr: 0x100007A50, symSize: 0x30 }
  - { offsetInCU: 0x159D5, offset: 0x159D5, size: 0x8, addend: 0x0, symName: __ZNKSt3__116__deque_iteratorIiPKiRS1_PKS2_lLl1024EEdeB8ue170006Ev, symObjAddr: 0x6E30, symBinAddr: 0x100007A80, symSize: 0x20 }
  - { offsetInCU: 0x159FB, offset: 0x159FB, size: 0x8, addend: 0x0, symName: __ZNSt3__116__deque_iteratorIiPKiRS1_PKS2_lLl1024EEppB8ue170006Ev, symObjAddr: 0x6E50, symBinAddr: 0x100007AA0, symSize: 0x60 }
  - { offsetInCU: 0x15A21, offset: 0x15A21, size: 0x8, addend: 0x0, symName: __ZNSt3__15dequeIiNS_9allocatorIiEEE21_ConstructTransactionD1B8ue170006Ev, symObjAddr: 0x6EB0, symBinAddr: 0x100007B00, symSize: 0x20 }
  - { offsetInCU: 0x15A4B, offset: 0x15A4B, size: 0x8, addend: 0x0, symName: __ZNSt3__15dequeIiNS_9allocatorIiEEE13__deque_rangeppB8ue170006Ev, symObjAddr: 0x6ED0, symBinAddr: 0x100007B20, symSize: 0x60 }
  - { offsetInCU: 0x15A71, offset: 0x15A71, size: 0x8, addend: 0x0, symName: __ZNKSt3__15dequeIiNS_9allocatorIiEEE10__capacityB8ue170006Ev, symObjAddr: 0x6F30, symBinAddr: 0x100007B80, symSize: 0x50 }
  - { offsetInCU: 0x15A97, offset: 0x15A97, size: 0x8, addend: 0x0, symName: __ZNSt3__15dequeIiNS_9allocatorIiEEE18__recommend_blocksB8ue170006Em, symObjAddr: 0x6F80, symBinAddr: 0x100007BD0, symSize: 0x30 }
  - { offsetInCU: 0x15ABB, offset: 0x15ABB, size: 0x8, addend: 0x0, symName: __ZNSt3__114__split_bufferIPiNS_9allocatorIS1_EEE9push_backB8ue170006ERKS1_, symObjAddr: 0x6FB0, symBinAddr: 0x100007C00, symSize: 0x2B0 }
  - { offsetInCU: 0x15B34, offset: 0x15B34, size: 0x8, addend: 0x0, symName: __ZNKSt3__114__split_bufferIPiNS_9allocatorIS1_EEE12__back_spareB8ue170006Ev, symObjAddr: 0x7260, symBinAddr: 0x100007EB0, symSize: 0x40 }
  - { offsetInCU: 0x15B5A, offset: 0x15B5A, size: 0x8, addend: 0x0, symName: __ZNSt3__114__split_bufferIPiNS_9allocatorIS1_EEE9push_backEOS1_, symObjAddr: 0x72A0, symBinAddr: 0x100007EF0, symSize: 0x2B0 }
  - { offsetInCU: 0x15BD3, offset: 0x15BD3, size: 0x8, addend: 0x0, symName: __ZNSt3__116allocator_traitsINS_9allocatorIiEEE8allocateB8ue170006ERS2_m, symObjAddr: 0x7550, symBinAddr: 0x1000081A0, symSize: 0x30 }
  - { offsetInCU: 0x15C06, offset: 0x15C06, size: 0x8, addend: 0x0, symName: __ZNSt3__114__split_bufferIPiNS_9allocatorIS1_EEE10push_frontEOS1_, symObjAddr: 0x7580, symBinAddr: 0x1000081D0, symSize: 0x280 }
  - { offsetInCU: 0x15C7F, offset: 0x15C7F, size: 0x8, addend: 0x0, symName: __ZNSt3__114__split_bufferIPiRNS_9allocatorIS1_EEEC1EmmS4_, symObjAddr: 0x7800, symBinAddr: 0x100008450, symSize: 0x40 }
  - { offsetInCU: 0x15CD5, offset: 0x15CD5, size: 0x8, addend: 0x0, symName: __ZNSt3__114__split_bufferIPiRNS_9allocatorIS1_EEE9push_backEOS1_, symObjAddr: 0x7840, symBinAddr: 0x100008490, symSize: 0x2B0 }
  - { offsetInCU: 0x15D4E, offset: 0x15D4E, size: 0x8, addend: 0x0, symName: __ZNSt3__114__split_bufferIPiRNS_9allocatorIS1_EEE4backB8ue170006Ev, symObjAddr: 0x7AF0, symBinAddr: 0x100008740, symSize: 0x20 }
  - { offsetInCU: 0x15D74, offset: 0x15D74, size: 0x8, addend: 0x0, symName: __ZNSt3__114__split_bufferIPiRNS_9allocatorIS1_EEE5beginB8ue170006Ev, symObjAddr: 0x7B10, symBinAddr: 0x100008760, symSize: 0x20 }
  - { offsetInCU: 0x15D9A, offset: 0x15D9A, size: 0x8, addend: 0x0, symName: __ZNSt3__114__split_bufferIPiRNS_9allocatorIS1_EEE3endB8ue170006Ev, symObjAddr: 0x7B30, symBinAddr: 0x100008780, symSize: 0x20 }
  - { offsetInCU: 0x15DC0, offset: 0x15DC0, size: 0x8, addend: 0x0, symName: __ZNSt3__114__split_bufferIPiRNS_9allocatorIS1_EEE9push_backB8ue170006ERKS1_, symObjAddr: 0x7B50, symBinAddr: 0x1000087A0, symSize: 0x2B0 }
  - { offsetInCU: 0x15E39, offset: 0x15E39, size: 0x8, addend: 0x0, symName: __ZNSt3__114__split_bufferIPiRNS_9allocatorIS1_EEE10push_frontERKS1_, symObjAddr: 0x7E00, symBinAddr: 0x100008A50, symSize: 0x280 }
  - { offsetInCU: 0x15EB2, offset: 0x15EB2, size: 0x8, addend: 0x0, symName: __ZNSt3__114__split_bufferIPiNS_9allocatorIS1_EEE9__end_capB8ue170006Ev, symObjAddr: 0x80C0, symBinAddr: 0x100008D10, symSize: 0x20 }
  - { offsetInCU: 0x15ED8, offset: 0x15ED8, size: 0x8, addend: 0x0, symName: __ZNSt3__114__split_bufferIPiRNS_9allocatorIS1_EEE9__end_capB8ue170006Ev, symObjAddr: 0x80E0, symBinAddr: 0x100008D30, symSize: 0x20 }
  - { offsetInCU: 0x15EFE, offset: 0x15EFE, size: 0x8, addend: 0x0, symName: __ZNSt3__114__split_bufferIPiRNS_9allocatorIS1_EEED1Ev, symObjAddr: 0x8100, symBinAddr: 0x100008D50, symSize: 0x20 }
  - { offsetInCU: 0x15F2A, offset: 0x15F2A, size: 0x8, addend: 0x0, symName: __ZNSt3__114__split_bufferIPiRNS_9allocatorIS1_EEE18__construct_at_endINS_13move_iteratorIPS1_EEEENS_9enable_ifIXsr31__has_forward_iterator_categoryIT_EE5valueEvE4typeESB_SB_, symObjAddr: 0x8160, symBinAddr: 0x100008DB0, symSize: 0x60 }
  - { offsetInCU: 0x15F77, offset: 0x15F77, size: 0x8, addend: 0x0, symName: __ZNSt3__113move_iteratorIPPiEC1B8ue170006ES2_, symObjAddr: 0x81C0, symBinAddr: 0x100008E10, symSize: 0x30 }
  - { offsetInCU: 0x15FAF, offset: 0x15FAF, size: 0x8, addend: 0x0, symName: __ZNSt3__116allocator_traitsINS_9allocatorIPiEEE9constructB8ue170006IS2_JRKS2_EvEEvRS3_PT_DpOT0_, symObjAddr: 0x81F0, symBinAddr: 0x100008E40, symSize: 0x30 }
  - { offsetInCU: 0x16029, offset: 0x16029, size: 0x8, addend: 0x0, symName: __ZNKSt3__114__move_trivialclB8ue170006IPiS2_Li0EEENS_4pairIPT_PT0_EES5_S5_S7_, symObjAddr: 0x83A0, symBinAddr: 0x100008FF0, symSize: 0x40 }
  - { offsetInCU: 0x16091, offset: 0x16091, size: 0x8, addend: 0x0, symName: __ZNSt3__14pairIPPiS2_EC1B8ue170006ERKS2_S5_, symObjAddr: 0x85E0, symBinAddr: 0x100009230, symSize: 0x30 }
  - { offsetInCU: 0x160D7, offset: 0x160D7, size: 0x8, addend: 0x0, symName: __ZNSt3__14pairIPPiS2_EC2B8ue170006ERKS2_S5_, symObjAddr: 0x8610, symBinAddr: 0x100009260, symSize: 0x30 }
  - { offsetInCU: 0x1611D, offset: 0x1611D, size: 0x8, addend: 0x0, symName: __ZNSt3__118__unwrap_iter_implIPPiLb1EE8__unwrapB8ue170006ES2_, symObjAddr: 0x8640, symBinAddr: 0x100009290, symSize: 0x20 }
  - { offsetInCU: 0x16140, offset: 0x16140, size: 0x8, addend: 0x0, symName: __ZNSt3__118__unwrap_iter_implIPPiLb1EE8__rewrapB8ue170006ES2_S2_, symObjAddr: 0x8660, symBinAddr: 0x1000092B0, symSize: 0x50 }
  - { offsetInCU: 0x16171, offset: 0x16171, size: 0x8, addend: 0x0, symName: __ZNSt3__114__split_bufferIPiRNS_9allocatorIS1_EEE28__construct_at_end_with_sizeINS_13move_iteratorIPS1_EEEEvT_m, symObjAddr: 0x86B0, symBinAddr: 0x100009300, symSize: 0xE0 }
  - { offsetInCU: 0x161D7, offset: 0x161D7, size: 0x8, addend: 0x0, symName: __ZNSt3__114__split_bufferIPiRNS_9allocatorIS1_EEE21_ConstructTransactionC1B8ue170006EPPS1_m, symObjAddr: 0x87D0, symBinAddr: 0x100009420, symSize: 0x30 }
  - { offsetInCU: 0x1621D, offset: 0x1621D, size: 0x8, addend: 0x0, symName: __ZNSt3__116allocator_traitsINS_9allocatorIPiEEE9constructB8ue170006IS2_JS2_EvEEvRS3_PT_DpOT0_, symObjAddr: 0x8800, symBinAddr: 0x100009450, symSize: 0x30 }
  - { offsetInCU: 0x16274, offset: 0x16274, size: 0x8, addend: 0x0, symName: __ZNSt3__114__split_bufferIPiRNS_9allocatorIS1_EEE7__allocB8ue170006Ev, symObjAddr: 0x8830, symBinAddr: 0x100009480, symSize: 0x20 }
  - { offsetInCU: 0x1629A, offset: 0x1629A, size: 0x8, addend: 0x0, symName: __ZNKSt3__113move_iteratorIPPiEdeB8ue170006Ev, symObjAddr: 0x8850, symBinAddr: 0x1000094A0, symSize: 0x20 }
  - { offsetInCU: 0x162C0, offset: 0x162C0, size: 0x8, addend: 0x0, symName: __ZNSt3__113move_iteratorIPPiEppB8ue170006Ev, symObjAddr: 0x8870, symBinAddr: 0x1000094C0, symSize: 0x20 }
  - { offsetInCU: 0x162E6, offset: 0x162E6, size: 0x8, addend: 0x0, symName: __ZNSt3__114__split_bufferIPiRNS_9allocatorIS1_EEE21_ConstructTransactionD1B8ue170006Ev, symObjAddr: 0x8890, symBinAddr: 0x1000094E0, symSize: 0x20 }
  - { offsetInCU: 0x16310, offset: 0x16310, size: 0x8, addend: 0x0, symName: __ZNSt3__114__split_bufferIPiRNS_9allocatorIS1_EEE21_ConstructTransactionC2B8ue170006EPPS1_m, symObjAddr: 0x88B0, symBinAddr: 0x100009500, symSize: 0x40 }
  - { offsetInCU: 0x16356, offset: 0x16356, size: 0x8, addend: 0x0, symName: __ZNSt3__19allocatorIPiE9constructB8ue170006IS1_JS1_EEEvPT_DpOT0_, symObjAddr: 0x88F0, symBinAddr: 0x100009540, symSize: 0x20 }
  - { offsetInCU: 0x163AC, offset: 0x163AC, size: 0x8, addend: 0x0, symName: __ZNSt3__117__compressed_pairIPPiRNS_9allocatorIS1_EEE6secondB8ue170006Ev, symObjAddr: 0x8910, symBinAddr: 0x100009560, symSize: 0x20 }
  - { offsetInCU: 0x163D2, offset: 0x163D2, size: 0x8, addend: 0x0, symName: __ZNSt3__122__compressed_pair_elemIRNS_9allocatorIPiEELi1ELb0EE5__getB8ue170006Ev, symObjAddr: 0x8930, symBinAddr: 0x100009580, symSize: 0x20 }
  - { offsetInCU: 0x163F8, offset: 0x163F8, size: 0x8, addend: 0x0, symName: __ZNSt3__114__split_bufferIPiRNS_9allocatorIS1_EEE21_ConstructTransactionD2B8ue170006Ev, symObjAddr: 0x8950, symBinAddr: 0x1000095A0, symSize: 0x20 }
  - { offsetInCU: 0x16422, offset: 0x16422, size: 0x8, addend: 0x0, symName: __ZNKSt3__113move_iteratorIPPiE4baseB8ue170006Ev, symObjAddr: 0x89E0, symBinAddr: 0x100009630, symSize: 0x20 }
  - { offsetInCU: 0x16448, offset: 0x16448, size: 0x8, addend: 0x0, symName: __ZNSt3__113move_iteratorIPPiEC2B8ue170006ES2_, symObjAddr: 0x8A00, symBinAddr: 0x100009650, symSize: 0x20 }
  - { offsetInCU: 0x16480, offset: 0x16480, size: 0x8, addend: 0x0, symName: __ZNSt3__19allocatorIPiE9constructB8ue170006IS1_JRKS1_EEEvPT_DpOT0_, symObjAddr: 0x8A20, symBinAddr: 0x100009670, symSize: 0x20 }
  - { offsetInCU: 0x164E0, offset: 0x164E0, size: 0x8, addend: 0x0, symName: __ZNKSt3__123__move_backward_trivialclB8ue170006IPiS2_Li0EEENS_4pairIPT_PT0_EES5_S5_S7_, symObjAddr: 0x8BB0, symBinAddr: 0x100009800, symSize: 0x40 }
  - { offsetInCU: 0x16548, offset: 0x16548, size: 0x8, addend: 0x0, symName: __ZNSt3__114__split_bufferIPiRNS_9allocatorIS1_EEEC2EmmS4_, symObjAddr: 0x8C90, symBinAddr: 0x1000098E0, symSize: 0xD0 }
  - { offsetInCU: 0x165BC, offset: 0x165BC, size: 0x8, addend: 0x0, symName: __ZNSt3__117__compressed_pairIPPiRNS_9allocatorIS1_EEEC1B8ue170006IDnS5_EEOT_OT0_, symObjAddr: 0x8D60, symBinAddr: 0x1000099B0, symSize: 0x30 }
  - { offsetInCU: 0x16614, offset: 0x16614, size: 0x8, addend: 0x0, symName: __ZNSt3__117__compressed_pairIPPiRNS_9allocatorIS1_EEEC2B8ue170006IDnS5_EEOT_OT0_, symObjAddr: 0x8DD0, symBinAddr: 0x100009A20, symSize: 0x40 }
  - { offsetInCU: 0x1666C, offset: 0x1666C, size: 0x8, addend: 0x0, symName: __ZNSt3__122__compressed_pair_elemIRNS_9allocatorIPiEELi1ELb0EEC2B8ue170006IS4_vEEOT_, symObjAddr: 0x8E10, symBinAddr: 0x100009A60, symSize: 0x20 }
  - { offsetInCU: 0x166AE, offset: 0x166AE, size: 0x8, addend: 0x0, symName: __ZNSt3__19allocatorIPiE8allocateB8ue170006Em, symObjAddr: 0x8E30, symBinAddr: 0x100009A80, symSize: 0x80 }
  - { offsetInCU: 0x166EC, offset: 0x166EC, size: 0x8, addend: 0x0, symName: __ZNSt3__116allocator_traitsINS_9allocatorIPiEEE8max_sizeB8ue170006IS3_vEEmRKS3_, symObjAddr: 0x8EB0, symBinAddr: 0x100009B00, symSize: 0x20 }
  - { offsetInCU: 0x1671A, offset: 0x1671A, size: 0x8, addend: 0x0, symName: __ZNKSt3__19allocatorIPiE8max_sizeB8ue170006Ev, symObjAddr: 0x8ED0, symBinAddr: 0x100009B20, symSize: 0x20 }
  - { offsetInCU: 0x16740, offset: 0x16740, size: 0x8, addend: 0x0, symName: __ZNSt3__117__compressed_pairIPPiNS_9allocatorIS1_EEE5firstB8ue170006Ev, symObjAddr: 0x8EF0, symBinAddr: 0x100009B40, symSize: 0x20 }
  - { offsetInCU: 0x16766, offset: 0x16766, size: 0x8, addend: 0x0, symName: __ZNSt3__122__compressed_pair_elemIPPiLi0ELb0EE5__getB8ue170006Ev, symObjAddr: 0x8F10, symBinAddr: 0x100009B60, symSize: 0x10 }
  - { offsetInCU: 0x1678C, offset: 0x1678C, size: 0x8, addend: 0x0, symName: __ZNSt3__117__compressed_pairIPPiRNS_9allocatorIS1_EEE5firstB8ue170006Ev, symObjAddr: 0x8F20, symBinAddr: 0x100009B70, symSize: 0x20 }
  - { offsetInCU: 0x167B2, offset: 0x167B2, size: 0x8, addend: 0x0, symName: __ZNSt3__114__split_bufferIPiRNS_9allocatorIS1_EEED2Ev, symObjAddr: 0x8F40, symBinAddr: 0x100009B90, symSize: 0x60 }
  - { offsetInCU: 0x167DE, offset: 0x167DE, size: 0x8, addend: 0x0, symName: __ZNSt3__114__split_bufferIPiRNS_9allocatorIS1_EEE5clearB8ue170006Ev, symObjAddr: 0x8FA0, symBinAddr: 0x100009BF0, symSize: 0x20 }
  - { offsetInCU: 0x16804, offset: 0x16804, size: 0x8, addend: 0x0, symName: __ZNKSt3__114__split_bufferIPiRNS_9allocatorIS1_EEE8capacityB8ue170006Ev, symObjAddr: 0x8FC0, symBinAddr: 0x100009C10, symSize: 0x30 }
  - { offsetInCU: 0x1682A, offset: 0x1682A, size: 0x8, addend: 0x0, symName: __ZNSt3__114__split_bufferIPiRNS_9allocatorIS1_EEE17__destruct_at_endB8ue170006EPS1_, symObjAddr: 0x8FF0, symBinAddr: 0x100009C40, symSize: 0x30 }
  - { offsetInCU: 0x1685E, offset: 0x1685E, size: 0x8, addend: 0x0, symName: __ZNSt3__114__split_bufferIPiRNS_9allocatorIS1_EEE17__destruct_at_endB8ue170006EPS1_NS_17integral_constantIbLb0EEE, symObjAddr: 0x9020, symBinAddr: 0x100009C70, symSize: 0x80 }
  - { offsetInCU: 0x1689E, offset: 0x1689E, size: 0x8, addend: 0x0, symName: __ZNKSt3__114__split_bufferIPiRNS_9allocatorIS1_EEE9__end_capB8ue170006Ev, symObjAddr: 0x90A0, symBinAddr: 0x100009CF0, symSize: 0x20 }
  - { offsetInCU: 0x168C4, offset: 0x168C4, size: 0x8, addend: 0x0, symName: __ZNKSt3__117__compressed_pairIPPiRNS_9allocatorIS1_EEE5firstB8ue170006Ev, symObjAddr: 0x90C0, symBinAddr: 0x100009D10, symSize: 0x20 }
  - { offsetInCU: 0x168EA, offset: 0x168EA, size: 0x8, addend: 0x0, symName: __ZNSt3__116__deque_iteratorIiPiRiPS1_lLl1024EEpLB8ue170006El, symObjAddr: 0x90E0, symBinAddr: 0x100009D30, symSize: 0x100 }
  - { offsetInCU: 0x1693D, offset: 0x1693D, size: 0x8, addend: 0x0, symName: __ZNSt3__15dequeIiNS_9allocatorIiEEE13__deque_rangeC2B8ue170006ENS_16__deque_iteratorIiPiRiPS6_lLl1024EEES9_, symObjAddr: 0x91E0, symBinAddr: 0x100009E30, symSize: 0x40 }
  - { offsetInCU: 0x16985, offset: 0x16985, size: 0x8, addend: 0x0, symName: __ZNSt3__15dequeIiNS_9allocatorIiEEE19__deque_block_rangeC1B8ue170006EPiS5_, symObjAddr: 0x9250, symBinAddr: 0x100009EA0, symSize: 0x30 }
  - { offsetInCU: 0x169CD, offset: 0x169CD, size: 0x8, addend: 0x0, symName: __ZNSt3__15dequeIiNS_9allocatorIiEEE19__deque_block_rangeC2B8ue170006EPiS5_, symObjAddr: 0x9280, symBinAddr: 0x100009ED0, symSize: 0x30 }
  - { offsetInCU: 0x16A15, offset: 0x16A15, size: 0x8, addend: 0x0, symName: __ZNSt3__15dequeIiNS_9allocatorIiEEE21_ConstructTransactionC2B8ue170006EPS3_RNS3_19__deque_block_rangeE, symObjAddr: 0x92B0, symBinAddr: 0x100009F00, symSize: 0x40 }
  - { offsetInCU: 0x16A5D, offset: 0x16A5D, size: 0x8, addend: 0x0, symName: __ZNSt3__15dequeIiNS_9allocatorIiEEE21_ConstructTransactionD2B8ue170006Ev, symObjAddr: 0x92F0, symBinAddr: 0x100009F40, symSize: 0x40 }
  - { offsetInCU: 0x16A87, offset: 0x16A87, size: 0x8, addend: 0x0, symName: __ZNSt3__116__deque_iteratorIiPKiRS1_PKS2_lLl1024EEC1B8ue170006ES5_S2_, symObjAddr: 0x9460, symBinAddr: 0x10000A0B0, symSize: 0x30 }
  - { offsetInCU: 0x16ACF, offset: 0x16ACF, size: 0x8, addend: 0x0, symName: __ZNSt3__116__deque_iteratorIiPKiRS1_PKS2_lLl1024EEC2B8ue170006ES5_S2_, symObjAddr: 0x9490, symBinAddr: 0x10000A0E0, symSize: 0x30 }
  - { offsetInCU: 0x16B17, offset: 0x16B17, size: 0x8, addend: 0x0, symName: __ZNSt3__15dequeIiNS_9allocatorIiEEE9push_backERKi, symObjAddr: 0x94C0, symBinAddr: 0x10000A110, symSize: 0xA0 }
  - { offsetInCU: 0x16B5D, offset: 0x16B5D, size: 0x8, addend: 0x0, symName: __ZNSt3__15dequeIiNS_9allocatorIiEEE19__add_back_capacityEv, symObjAddr: 0x9560, symBinAddr: 0x10000A1B0, symSize: 0x3E0 }
  - { offsetInCU: 0x16C1A, offset: 0x16C1A, size: 0x8, addend: 0x0, symName: __ZNSt3__122__allocator_destructorINS_9allocatorIiEEEC1B8ue170006ERS2_m, symObjAddr: 0x9940, symBinAddr: 0x10000A590, symSize: 0x30 }
  - { offsetInCU: 0x16CCE, offset: 0x16CCE, size: 0x8, addend: 0x0, symName: __ZNSt3__110unique_ptrIPiNS_22__allocator_destructorINS_9allocatorIiEEEEEC1B8ue170006ILb1EvEES1_NS_16__dependent_typeINS_27__unique_ptr_deleter_sfinaeIS5_EEXT_EE20__good_rval_ref_typeE, symObjAddr: 0x9970, symBinAddr: 0x10000A5C0, symSize: 0x30 }
  - { offsetInCU: 0x16D1F, offset: 0x16D1F, size: 0x8, addend: 0x0, symName: __ZNKSt3__110unique_ptrIPiNS_22__allocator_destructorINS_9allocatorIiEEEEE3getB8ue170006Ev, symObjAddr: 0x99A0, symBinAddr: 0x10000A5F0, symSize: 0x20 }
  - { offsetInCU: 0x16D45, offset: 0x16D45, size: 0x8, addend: 0x0, symName: __ZNSt3__110unique_ptrIPiNS_22__allocator_destructorINS_9allocatorIiEEEEE7releaseB8ue170006Ev, symObjAddr: 0x99C0, symBinAddr: 0x10000A610, symSize: 0x40 }
  - { offsetInCU: 0x16D7A, offset: 0x16D7A, size: 0x8, addend: 0x0, symName: __ZNSt3__110unique_ptrIPiNS_22__allocator_destructorINS_9allocatorIiEEEEED1B8ue170006Ev, symObjAddr: 0x9A00, symBinAddr: 0x10000A650, symSize: 0x20 }
  - { offsetInCU: 0x16DA4, offset: 0x16DA4, size: 0x8, addend: 0x0, symName: __ZNSt3__122__allocator_destructorINS_9allocatorIiEEEC2B8ue170006ERS2_m, symObjAddr: 0x9A20, symBinAddr: 0x10000A670, symSize: 0x30 }
  - { offsetInCU: 0x16DEA, offset: 0x16DEA, size: 0x8, addend: 0x0, symName: __ZNSt3__110unique_ptrIPiNS_22__allocator_destructorINS_9allocatorIiEEEEEC2B8ue170006ILb1EvEES1_NS_16__dependent_typeINS_27__unique_ptr_deleter_sfinaeIS5_EEXT_EE20__good_rval_ref_typeE, symObjAddr: 0x9A50, symBinAddr: 0x10000A6A0, symSize: 0x50 }
  - { offsetInCU: 0x16E3B, offset: 0x16E3B, size: 0x8, addend: 0x0, symName: __ZNSt3__117__compressed_pairIPiNS_22__allocator_destructorINS_9allocatorIiEEEEEC1B8ue170006IRS1_S5_EEOT_OT0_, symObjAddr: 0x9AA0, symBinAddr: 0x10000A6F0, symSize: 0x30 }
  - { offsetInCU: 0x16E93, offset: 0x16E93, size: 0x8, addend: 0x0, symName: __ZNSt3__117__compressed_pairIPiNS_22__allocator_destructorINS_9allocatorIiEEEEEC2B8ue170006IRS1_S5_EEOT_OT0_, symObjAddr: 0x9AD0, symBinAddr: 0x10000A720, symSize: 0x40 }
  - { offsetInCU: 0x16EEB, offset: 0x16EEB, size: 0x8, addend: 0x0, symName: __ZNSt3__122__compressed_pair_elemIPiLi0ELb0EEC2B8ue170006IRS1_vEEOT_, symObjAddr: 0x9B10, symBinAddr: 0x10000A760, symSize: 0x20 }
  - { offsetInCU: 0x16F2D, offset: 0x16F2D, size: 0x8, addend: 0x0, symName: __ZNSt3__122__compressed_pair_elemINS_22__allocator_destructorINS_9allocatorIiEEEELi1ELb0EEC2B8ue170006IS4_vEEOT_, symObjAddr: 0x9B30, symBinAddr: 0x10000A780, symSize: 0x30 }
  - { offsetInCU: 0x16F6F, offset: 0x16F6F, size: 0x8, addend: 0x0, symName: __ZNKSt3__117__compressed_pairIPiNS_22__allocator_destructorINS_9allocatorIiEEEEE5firstB8ue170006Ev, symObjAddr: 0x9B60, symBinAddr: 0x10000A7B0, symSize: 0x20 }
  - { offsetInCU: 0x16F95, offset: 0x16F95, size: 0x8, addend: 0x0, symName: __ZNSt3__117__compressed_pairIPiNS_22__allocator_destructorINS_9allocatorIiEEEEE5firstB8ue170006Ev, symObjAddr: 0x9B80, symBinAddr: 0x10000A7D0, symSize: 0x20 }
  - { offsetInCU: 0x16FBB, offset: 0x16FBB, size: 0x8, addend: 0x0, symName: __ZNSt3__110unique_ptrIPiNS_22__allocator_destructorINS_9allocatorIiEEEEED2B8ue170006Ev, symObjAddr: 0x9BA0, symBinAddr: 0x10000A7F0, symSize: 0x20 }
  - { offsetInCU: 0x16FE5, offset: 0x16FE5, size: 0x8, addend: 0x0, symName: __ZNSt3__110unique_ptrIPiNS_22__allocator_destructorINS_9allocatorIiEEEEE5resetB8ue170006ES1_, symObjAddr: 0x9BC0, symBinAddr: 0x10000A810, symSize: 0x70 }
  - { offsetInCU: 0x17029, offset: 0x17029, size: 0x8, addend: 0x0, symName: __ZNSt3__117__compressed_pairIPiNS_22__allocator_destructorINS_9allocatorIiEEEEE6secondB8ue170006Ev, symObjAddr: 0x9C30, symBinAddr: 0x10000A880, symSize: 0x20 }
  - { offsetInCU: 0x1704F, offset: 0x1704F, size: 0x8, addend: 0x0, symName: __ZNSt3__122__allocator_destructorINS_9allocatorIiEEEclB8ue170006EPi, symObjAddr: 0x9C50, symBinAddr: 0x10000A8A0, symSize: 0x30 }
  - { offsetInCU: 0x17083, offset: 0x17083, size: 0x8, addend: 0x0, symName: __ZNSt3__122__compressed_pair_elemINS_22__allocator_destructorINS_9allocatorIiEEEELi1ELb0EE5__getB8ue170006Ev, symObjAddr: 0x9C80, symBinAddr: 0x10000A8D0, symSize: 0x10 }
  - { offsetInCU: 0x170A9, offset: 0x170A9, size: 0x8, addend: 0x0, symName: __ZNSt3__112__hash_tableIiNS_4hashIiEENS_8equal_toIiEENS_9allocatorIiEEE15__insert_uniqueB8ue170006ERKi, symObjAddr: 0x9C90, symBinAddr: 0x10000A8E0, symSize: 0x50 }
  - { offsetInCU: 0x170DE, offset: 0x170DE, size: 0x8, addend: 0x0, symName: __ZNSt3__14pairINS_21__hash_const_iteratorIPNS_11__hash_nodeIiPvEEEEbEC1B8ue170006INS_15__hash_iteratorIS5_EEbEERKNS0_IT_T0_EE, symObjAddr: 0x9CE0, symBinAddr: 0x10000A930, symSize: 0x30 }
  - { offsetInCU: 0x17128, offset: 0x17128, size: 0x8, addend: 0x0, symName: __ZNSt3__112__hash_tableIiNS_4hashIiEENS_8equal_toIiEENS_9allocatorIiEEE25__emplace_unique_key_argsIiJRKiEEENS_4pairINS_15__hash_iteratorIPNS_11__hash_nodeIiPvEEEEbEERKT_DpOT0_, symObjAddr: 0x9D10, symBinAddr: 0x10000A960, symSize: 0x5D0 }
  - { offsetInCU: 0x17206, offset: 0x17206, size: 0x8, addend: 0x0, symName: __ZNSt3__122__hash_key_value_typesIiE9__get_keyB8ue170006ERKi, symObjAddr: 0xA2E0, symBinAddr: 0x10000AF30, symSize: 0x10 }
  - { offsetInCU: 0x17229, offset: 0x17229, size: 0x8, addend: 0x0, symName: __ZNSt3__112__hash_tableIiNS_4hashIiEENS_8equal_toIiEENS_9allocatorIiEEE21__construct_node_hashIRKiJEEENS_10unique_ptrINS_11__hash_nodeIiPvEENS_22__hash_node_destructorINS5_ISE_EEEEEEmOT_DpOT0_, symObjAddr: 0xA2F0, symBinAddr: 0x10000AF40, symSize: 0x130 }
  - { offsetInCU: 0x1729C, offset: 0x1729C, size: 0x8, addend: 0x0, symName: __ZNSt3__112__hash_tableIiNS_4hashIiEENS_8equal_toIiEENS_9allocatorIiEEE4sizeB8ue170006Ev, symObjAddr: 0xA420, symBinAddr: 0x10000B070, symSize: 0x20 }
  - { offsetInCU: 0x172C2, offset: 0x172C2, size: 0x8, addend: 0x0, symName: __ZNSt3__112__hash_tableIiNS_4hashIiEENS_8equal_toIiEENS_9allocatorIiEEE15max_load_factorB8ue170006Ev, symObjAddr: 0xA440, symBinAddr: 0x10000B090, symSize: 0x20 }
  - { offsetInCU: 0x172E8, offset: 0x172E8, size: 0x8, addend: 0x0, symName: __ZNSt3__112__hash_tableIiNS_4hashIiEENS_8equal_toIiEENS_9allocatorIiEEE15__rehash_uniqueB8ue170006Em, symObjAddr: 0xA460, symBinAddr: 0x10000B0B0, symSize: 0x30 }
  - { offsetInCU: 0x1731C, offset: 0x1731C, size: 0x8, addend: 0x0, symName: __Z4ceilB8ue170006f, symObjAddr: 0xA4D0, symBinAddr: 0x10000B120, symSize: 0x20 }
  - { offsetInCU: 0x1734B, offset: 0x1734B, size: 0x8, addend: 0x0, symName: __ZNSt3__116__hash_node_baseIPNS_11__hash_nodeIiPvEEE5__ptrB8ue170006Ev, symObjAddr: 0xA4F0, symBinAddr: 0x10000B140, symSize: 0x20 }
  - { offsetInCU: 0x17371, offset: 0x17371, size: 0x8, addend: 0x0, symName: __ZNKSt3__110unique_ptrINS_11__hash_nodeIiPvEENS_22__hash_node_destructorINS_9allocatorIS3_EEEEEptB8ue170006Ev, symObjAddr: 0xA510, symBinAddr: 0x10000B160, symSize: 0x20 }
  - { offsetInCU: 0x17397, offset: 0x17397, size: 0x8, addend: 0x0, symName: __ZNKSt3__110unique_ptrINS_11__hash_nodeIiPvEENS_22__hash_node_destructorINS_9allocatorIS3_EEEEE3getB8ue170006Ev, symObjAddr: 0xA530, symBinAddr: 0x10000B180, symSize: 0x20 }
  - { offsetInCU: 0x173BD, offset: 0x173BD, size: 0x8, addend: 0x0, symName: __ZNSt3__110unique_ptrINS_11__hash_nodeIiPvEENS_22__hash_node_destructorINS_9allocatorIS3_EEEEE7releaseB8ue170006Ev, symObjAddr: 0xA550, symBinAddr: 0x10000B1A0, symSize: 0x40 }
  - { offsetInCU: 0x173F2, offset: 0x173F2, size: 0x8, addend: 0x0, symName: __ZNSt3__110unique_ptrINS_11__hash_nodeIiPvEENS_22__hash_node_destructorINS_9allocatorIS3_EEEEED1B8ue170006Ev, symObjAddr: 0xA590, symBinAddr: 0x10000B1E0, symSize: 0x20 }
  - { offsetInCU: 0x1741C, offset: 0x1741C, size: 0x8, addend: 0x0, symName: __ZNSt3__14pairINS_15__hash_iteratorIPNS_11__hash_nodeIiPvEEEEbEC1B8ue170006ERKS6_RKb, symObjAddr: 0xA5B0, symBinAddr: 0x10000B200, symSize: 0x30 }
  - { offsetInCU: 0x17462, offset: 0x17462, size: 0x8, addend: 0x0, symName: __ZNSt3__116allocator_traitsINS_9allocatorINS_11__hash_nodeIiPvEEEEE8allocateB8ue170006ERS5_m, symObjAddr: 0xA5E0, symBinAddr: 0x10000B230, symSize: 0x30 }
  - { offsetInCU: 0x17495, offset: 0x17495, size: 0x8, addend: 0x0, symName: __ZNSt3__122__hash_node_destructorINS_9allocatorINS_11__hash_nodeIiPvEEEEEC1B8ue170006ERS5_b, symObjAddr: 0xA610, symBinAddr: 0x10000B260, symSize: 0x40 }
  - { offsetInCU: 0x174E2, offset: 0x174E2, size: 0x8, addend: 0x0, symName: __ZNSt3__110unique_ptrINS_11__hash_nodeIiPvEENS_22__hash_node_destructorINS_9allocatorIS3_EEEEEC1B8ue170006ILb1EvEEPS3_NS_16__dependent_typeINS_27__unique_ptr_deleter_sfinaeIS7_EEXT_EE20__good_rval_ref_typeE, symObjAddr: 0xA650, symBinAddr: 0x10000B2A0, symSize: 0x30 }
  - { offsetInCU: 0x17533, offset: 0x17533, size: 0x8, addend: 0x0, symName: __ZNSt3__116allocator_traitsINS_9allocatorINS_11__hash_nodeIiPvEEEEE9constructB8ue170006IiJRKiEvEEvRS5_PT_DpOT0_, symObjAddr: 0xA680, symBinAddr: 0x10000B2D0, symSize: 0x30 }
  - { offsetInCU: 0x1758A, offset: 0x1758A, size: 0x8, addend: 0x0, symName: __ZNSt3__110unique_ptrINS_11__hash_nodeIiPvEENS_22__hash_node_destructorINS_9allocatorIS3_EEEEE11get_deleterB8ue170006Ev, symObjAddr: 0xA6B0, symBinAddr: 0x10000B300, symSize: 0x20 }
  - { offsetInCU: 0x175B0, offset: 0x175B0, size: 0x8, addend: 0x0, symName: __ZNSt3__19allocatorINS_11__hash_nodeIiPvEEE8allocateB8ue170006Em, symObjAddr: 0xA6D0, symBinAddr: 0x10000B320, symSize: 0x80 }
  - { offsetInCU: 0x175EE, offset: 0x175EE, size: 0x8, addend: 0x0, symName: __ZNSt3__116allocator_traitsINS_9allocatorINS_11__hash_nodeIiPvEEEEE8max_sizeB8ue170006IS5_vEEmRKS5_, symObjAddr: 0xA750, symBinAddr: 0x10000B3A0, symSize: 0x20 }
  - { offsetInCU: 0x1761C, offset: 0x1761C, size: 0x8, addend: 0x0, symName: __ZNKSt3__19allocatorINS_11__hash_nodeIiPvEEE8max_sizeB8ue170006Ev, symObjAddr: 0xA770, symBinAddr: 0x10000B3C0, symSize: 0x20 }
  - { offsetInCU: 0x17642, offset: 0x17642, size: 0x8, addend: 0x0, symName: __ZNSt3__122__hash_node_destructorINS_9allocatorINS_11__hash_nodeIiPvEEEEEC2B8ue170006ERS5_b, symObjAddr: 0xA790, symBinAddr: 0x10000B3E0, symSize: 0x30 }
  - { offsetInCU: 0x1768A, offset: 0x1768A, size: 0x8, addend: 0x0, symName: __ZNSt3__110unique_ptrINS_11__hash_nodeIiPvEENS_22__hash_node_destructorINS_9allocatorIS3_EEEEEC2B8ue170006ILb1EvEEPS3_NS_16__dependent_typeINS_27__unique_ptr_deleter_sfinaeIS7_EEXT_EE20__good_rval_ref_typeE, symObjAddr: 0xA7C0, symBinAddr: 0x10000B410, symSize: 0x50 }
  - { offsetInCU: 0x176DB, offset: 0x176DB, size: 0x8, addend: 0x0, symName: __ZNSt3__117__compressed_pairIPNS_11__hash_nodeIiPvEENS_22__hash_node_destructorINS_9allocatorIS3_EEEEEC1B8ue170006IRS4_S8_EEOT_OT0_, symObjAddr: 0xA810, symBinAddr: 0x10000B460, symSize: 0x30 }
  - { offsetInCU: 0x17733, offset: 0x17733, size: 0x8, addend: 0x0, symName: __ZNSt3__117__compressed_pairIPNS_11__hash_nodeIiPvEENS_22__hash_node_destructorINS_9allocatorIS3_EEEEEC2B8ue170006IRS4_S8_EEOT_OT0_, symObjAddr: 0xA840, symBinAddr: 0x10000B490, symSize: 0x40 }
  - { offsetInCU: 0x1778B, offset: 0x1778B, size: 0x8, addend: 0x0, symName: __ZNSt3__122__compressed_pair_elemIPNS_11__hash_nodeIiPvEELi0ELb0EEC2B8ue170006IRS4_vEEOT_, symObjAddr: 0xA880, symBinAddr: 0x10000B4D0, symSize: 0x20 }
  - { offsetInCU: 0x177CD, offset: 0x177CD, size: 0x8, addend: 0x0, symName: __ZNSt3__122__compressed_pair_elemINS_22__hash_node_destructorINS_9allocatorINS_11__hash_nodeIiPvEEEEEELi1ELb0EEC2B8ue170006IS7_vEEOT_, symObjAddr: 0xA8A0, symBinAddr: 0x10000B4F0, symSize: 0x30 }
  - { offsetInCU: 0x1780F, offset: 0x1780F, size: 0x8, addend: 0x0, symName: __ZNSt3__19allocatorINS_11__hash_nodeIiPvEEE9constructB8ue170006IiJRKiEEEvPT_DpOT0_, symObjAddr: 0xA8D0, symBinAddr: 0x10000B520, symSize: 0x20 }
  - { offsetInCU: 0x17865, offset: 0x17865, size: 0x8, addend: 0x0, symName: __ZNSt3__117__compressed_pairIPNS_11__hash_nodeIiPvEENS_22__hash_node_destructorINS_9allocatorIS3_EEEEE6secondB8ue170006Ev, symObjAddr: 0xA8F0, symBinAddr: 0x10000B540, symSize: 0x20 }
  - { offsetInCU: 0x1788B, offset: 0x1788B, size: 0x8, addend: 0x0, symName: __ZNSt3__122__compressed_pair_elemINS_22__hash_node_destructorINS_9allocatorINS_11__hash_nodeIiPvEEEEEELi1ELb0EE5__getB8ue170006Ev, symObjAddr: 0xA910, symBinAddr: 0x10000B560, symSize: 0x10 }
  - { offsetInCU: 0x178B1, offset: 0x178B1, size: 0x8, addend: 0x0, symName: __ZNSt3__117__compressed_pairImNS_4hashIiEEE5firstB8ue170006Ev, symObjAddr: 0xA920, symBinAddr: 0x10000B570, symSize: 0x20 }
  - { offsetInCU: 0x178D7, offset: 0x178D7, size: 0x8, addend: 0x0, symName: __ZNSt3__117__compressed_pairIfNS_8equal_toIiEEE5firstB8ue170006Ev, symObjAddr: 0xA940, symBinAddr: 0x10000B590, symSize: 0x20 }
  - { offsetInCU: 0x178FD, offset: 0x178FD, size: 0x8, addend: 0x0, symName: __ZNSt3__122__compressed_pair_elemIfLi0ELb0EE5__getB8ue170006Ev, symObjAddr: 0xA960, symBinAddr: 0x10000B5B0, symSize: 0x10 }
  - { offsetInCU: 0x17923, offset: 0x17923, size: 0x8, addend: 0x0, symName: __ZNSt3__112__hash_tableIiNS_4hashIiEENS_8equal_toIiEENS_9allocatorIiEEE8__rehashILb1EEEvm, symObjAddr: 0xA970, symBinAddr: 0x10000B5C0, symSize: 0x230 }
  - { offsetInCU: 0x17973, offset: 0x17973, size: 0x8, addend: 0x0, symName: __ZNSt3__112__hash_tableIiNS_4hashIiEENS_8equal_toIiEENS_9allocatorIiEEE11__do_rehashILb1EEEvm, symObjAddr: 0xABA0, symBinAddr: 0x10000B7F0, symSize: 0x250 }
  - { offsetInCU: 0x17A5A, offset: 0x17A5A, size: 0x8, addend: 0x0, symName: __ZNSt3__110unique_ptrIA_PNS_16__hash_node_baseIPNS_11__hash_nodeIiPvEEEENS_25__bucket_list_deallocatorINS_9allocatorIS7_EEEEE11get_deleterB8ue170006Ev, symObjAddr: 0xAE50, symBinAddr: 0x10000BAA0, symSize: 0x20 }
  - { offsetInCU: 0x17A80, offset: 0x17A80, size: 0x8, addend: 0x0, symName: __ZNSt3__110unique_ptrIA_PNS_16__hash_node_baseIPNS_11__hash_nodeIiPvEEEENS_25__bucket_list_deallocatorINS_9allocatorIS7_EEEEE5resetB8ue170006IPS7_EENS_9enable_ifIXsr28_CheckArrayPointerConversionIT_EE5valueEvE4typeESH_, symObjAddr: 0xAE70, symBinAddr: 0x10000BAC0, symSize: 0x70 }
  - { offsetInCU: 0x17ACD, offset: 0x17ACD, size: 0x8, addend: 0x0, symName: __ZNSt3__116allocator_traitsINS_9allocatorIPNS_16__hash_node_baseIPNS_11__hash_nodeIiPvEEEEEEE8allocateB8ue170006ERS9_m, symObjAddr: 0xAEE0, symBinAddr: 0x10000BB30, symSize: 0x30 }
  - { offsetInCU: 0x17B00, offset: 0x17B00, size: 0x8, addend: 0x0, symName: __ZNSt3__19allocatorIPNS_16__hash_node_baseIPNS_11__hash_nodeIiPvEEEEE8allocateB8ue170006Em, symObjAddr: 0xAF10, symBinAddr: 0x10000BB60, symSize: 0x80 }
  - { offsetInCU: 0x17B3E, offset: 0x17B3E, size: 0x8, addend: 0x0, symName: __ZNSt3__116allocator_traitsINS_9allocatorIPNS_16__hash_node_baseIPNS_11__hash_nodeIiPvEEEEEEE8max_sizeB8ue170006IS9_vEEmRKS9_, symObjAddr: 0xAF90, symBinAddr: 0x10000BBE0, symSize: 0x20 }
  - { offsetInCU: 0x17B6C, offset: 0x17B6C, size: 0x8, addend: 0x0, symName: __ZNKSt3__19allocatorIPNS_16__hash_node_baseIPNS_11__hash_nodeIiPvEEEEE8max_sizeB8ue170006Ev, symObjAddr: 0xAFB0, symBinAddr: 0x10000BC00, symSize: 0x20 }
  - { offsetInCU: 0x17B92, offset: 0x17B92, size: 0x8, addend: 0x0, symName: __ZNKSt3__117__compressed_pairIPNS_11__hash_nodeIiPvEENS_22__hash_node_destructorINS_9allocatorIS3_EEEEE5firstB8ue170006Ev, symObjAddr: 0xAFF0, symBinAddr: 0x10000BC40, symSize: 0x20 }
  - { offsetInCU: 0x17BB8, offset: 0x17BB8, size: 0x8, addend: 0x0, symName: __ZNKSt3__122__compressed_pair_elemIPNS_11__hash_nodeIiPvEELi0ELb0EE5__getB8ue170006Ev, symObjAddr: 0xB010, symBinAddr: 0x10000BC60, symSize: 0x10 }
  - { offsetInCU: 0x17BDE, offset: 0x17BDE, size: 0x8, addend: 0x0, symName: __ZNSt3__117__compressed_pairIPNS_11__hash_nodeIiPvEENS_22__hash_node_destructorINS_9allocatorIS3_EEEEE5firstB8ue170006Ev, symObjAddr: 0xB020, symBinAddr: 0x10000BC70, symSize: 0x20 }
  - { offsetInCU: 0x17C04, offset: 0x17C04, size: 0x8, addend: 0x0, symName: __ZNSt3__122__compressed_pair_elemIPNS_11__hash_nodeIiPvEELi0ELb0EE5__getB8ue170006Ev, symObjAddr: 0xB040, symBinAddr: 0x10000BC90, symSize: 0x10 }
  - { offsetInCU: 0x17C2A, offset: 0x17C2A, size: 0x8, addend: 0x0, symName: __ZNSt3__110unique_ptrINS_11__hash_nodeIiPvEENS_22__hash_node_destructorINS_9allocatorIS3_EEEEED2B8ue170006Ev, symObjAddr: 0xB050, symBinAddr: 0x10000BCA0, symSize: 0x20 }
  - { offsetInCU: 0x17C54, offset: 0x17C54, size: 0x8, addend: 0x0, symName: __ZNSt3__110unique_ptrINS_11__hash_nodeIiPvEENS_22__hash_node_destructorINS_9allocatorIS3_EEEEE5resetB8ue170006EPS3_, symObjAddr: 0xB070, symBinAddr: 0x10000BCC0, symSize: 0x70 }
  - { offsetInCU: 0x17C98, offset: 0x17C98, size: 0x8, addend: 0x0, symName: __ZNSt3__122__hash_node_destructorINS_9allocatorINS_11__hash_nodeIiPvEEEEEclB8ue170006EPS4_, symObjAddr: 0xB0E0, symBinAddr: 0x10000BD30, symSize: 0x70 }
  - { offsetInCU: 0x17CCD, offset: 0x17CCD, size: 0x8, addend: 0x0, symName: __ZNSt3__14pairINS_15__hash_iteratorIPNS_11__hash_nodeIiPvEEEEbEC2B8ue170006ERKS6_RKb, symObjAddr: 0xB150, symBinAddr: 0x10000BDA0, symSize: 0x30 }
  - { offsetInCU: 0x17D13, offset: 0x17D13, size: 0x8, addend: 0x0, symName: __ZNSt3__14pairINS_21__hash_const_iteratorIPNS_11__hash_nodeIiPvEEEEbEC2B8ue170006INS_15__hash_iteratorIS5_EEbEERKNS0_IT_T0_EE, symObjAddr: 0xB180, symBinAddr: 0x10000BDD0, symSize: 0x40 }
  - { offsetInCU: 0x17D5D, offset: 0x17D5D, size: 0x8, addend: 0x0, symName: __ZNSt3__112__hash_tableIiNS_4hashIiEENS_8equal_toIiEENS_9allocatorIiEEE14__erase_uniqueIiEEmRKT_, symObjAddr: 0xB1C0, symBinAddr: 0x10000BE10, symSize: 0x90 }
  - { offsetInCU: 0x17DAC, offset: 0x17DAC, size: 0x8, addend: 0x0, symName: __ZNSt3__112__hash_tableIiNS_4hashIiEENS_8equal_toIiEENS_9allocatorIiEEE5eraseENS_21__hash_const_iteratorIPNS_11__hash_nodeIiPvEEEE, symObjAddr: 0xB280, symBinAddr: 0x10000BED0, symSize: 0x70 }
  - { offsetInCU: 0x17E01, offset: 0x17E01, size: 0x8, addend: 0x0, symName: __ZNSt3__115__hash_iteratorIPNS_11__hash_nodeIiPvEEEppB8ue170006Ev, symObjAddr: 0xB2F0, symBinAddr: 0x10000BF40, symSize: 0x20 }
  - { offsetInCU: 0x17E27, offset: 0x17E27, size: 0x8, addend: 0x0, symName: __ZNSt3__112__hash_tableIiNS_4hashIiEENS_8equal_toIiEENS_9allocatorIiEEE6removeENS_21__hash_const_iteratorIPNS_11__hash_nodeIiPvEEEE, symObjAddr: 0xB310, symBinAddr: 0x10000BF60, symSize: 0x1F0 }
  - { offsetInCU: 0x17EB8, offset: 0x17EB8, size: 0x8, addend: 0x0, symName: __ZNSt3__16vectorIiNS_9allocatorIiEEEC2Em, symObjAddr: 0xB500, symBinAddr: 0x10000C150, symSize: 0xE0 }
  - { offsetInCU: 0x17F08, offset: 0x17F08, size: 0x8, addend: 0x0, symName: __ZNSt3__16vectorIiNS_9allocatorIiEEE11__vallocateB8ue170006Em, symObjAddr: 0xB620, symBinAddr: 0x10000C270, symSize: 0xA0 }
  - { offsetInCU: 0x17F4C, offset: 0x17F4C, size: 0x8, addend: 0x0, symName: __ZNSt3__16vectorIiNS_9allocatorIiEEE18__construct_at_endEm, symObjAddr: 0xB6C0, symBinAddr: 0x10000C310, symSize: 0xD0 }
  - { offsetInCU: 0x17FBF, offset: 0x17FBF, size: 0x8, addend: 0x0, symName: __ZNSt3__128__exception_guard_exceptionsINS_6vectorIiNS_9allocatorIiEEE16__destroy_vectorEE10__completeB8ue170006Ev, symObjAddr: 0xB790, symBinAddr: 0x10000C3E0, symSize: 0x20 }
  - { offsetInCU: 0x17FE5, offset: 0x17FE5, size: 0x8, addend: 0x0, symName: __ZNSt3__128__exception_guard_exceptionsINS_6vectorIiNS_9allocatorIiEEE16__destroy_vectorEED1B8ue170006Ev, symObjAddr: 0xB7B0, symBinAddr: 0x10000C400, symSize: 0x20 }
  - { offsetInCU: 0x1800F, offset: 0x1800F, size: 0x8, addend: 0x0, symName: __ZNSt3__128__exception_guard_exceptionsINS_6vectorIiNS_9allocatorIiEEE16__destroy_vectorEEC1B8ue170006ES5_, symObjAddr: 0xB7D0, symBinAddr: 0x10000C420, symSize: 0x30 }
  - { offsetInCU: 0x18047, offset: 0x18047, size: 0x8, addend: 0x0, symName: __ZNSt3__128__exception_guard_exceptionsINS_6vectorIiNS_9allocatorIiEEE16__destroy_vectorEEC2B8ue170006ES5_, symObjAddr: 0xB800, symBinAddr: 0x10000C450, symSize: 0x20 }
  - { offsetInCU: 0x1807F, offset: 0x1807F, size: 0x8, addend: 0x0, symName: __ZNSt3__116allocator_traitsINS_9allocatorIiEEE9constructB8ue170006IiJEvEEvRS2_PT_DpOT0_, symObjAddr: 0xB820, symBinAddr: 0x10000C470, symSize: 0x30 }
  - { offsetInCU: 0x180C1, offset: 0x180C1, size: 0x8, addend: 0x0, symName: __ZNSt3__19allocatorIiE9constructB8ue170006IiJEEEvPT_DpOT0_, symObjAddr: 0xB850, symBinAddr: 0x10000C4A0, symSize: 0x20 }
  - { offsetInCU: 0x18103, offset: 0x18103, size: 0x8, addend: 0x0, symName: __ZNSt3__128__exception_guard_exceptionsINS_6vectorIiNS_9allocatorIiEEE16__destroy_vectorEED2B8ue170006Ev, symObjAddr: 0xB870, symBinAddr: 0x10000C4C0, symSize: 0x2D }
...
